
Byggern_term_proj_162.elf:     file format elf32-avr

Sections:
Idx Name          Size      VMA       LMA       File off  Algn
  0 .data         000002e2  00800100  00001252  000012e6  2**0
                  CONTENTS, ALLOC, LOAD, DATA
  1 .text         00001252  00000000  00000000  00000094  2**1
                  CONTENTS, ALLOC, LOAD, READONLY, CODE
  2 .bss          000000d2  008003e2  008003e2  000015c8  2**0
                  ALLOC
  3 .comment      00000030  00000000  00000000  000015c8  2**0
                  CONTENTS, READONLY
  4 .debug_aranges 000002d0  00000000  00000000  000015f8  2**0
                  CONTENTS, READONLY, DEBUGGING
  5 .debug_info   00003023  00000000  00000000  000018c8  2**0
                  CONTENTS, READONLY, DEBUGGING
  6 .debug_abbrev 00001097  00000000  00000000  000048eb  2**0
                  CONTENTS, READONLY, DEBUGGING
  7 .debug_line   00000fc4  00000000  00000000  00005982  2**0
                  CONTENTS, READONLY, DEBUGGING
  8 .debug_frame  00000720  00000000  00000000  00006948  2**2
                  CONTENTS, READONLY, DEBUGGING
  9 .debug_str    0000083d  00000000  00000000  00007068  2**0
                  CONTENTS, READONLY, DEBUGGING
 10 .debug_loc    0000124d  00000000  00000000  000078a5  2**0
                  CONTENTS, READONLY, DEBUGGING
 11 .debug_ranges 000002a0  00000000  00000000  00008af2  2**0
                  CONTENTS, READONLY, DEBUGGING

Disassembly of section .text:

00000000 <__vectors>:
       0:	0c 94 f6 00 	jmp	0x1ec	; 0x1ec <__ctors_end>
       4:	0c 94 a5 04 	jmp	0x94a	; 0x94a <__vector_1>
       8:	0c 94 33 05 	jmp	0xa66	; 0xa66 <__vector_2>
       c:	0c 94 13 01 	jmp	0x226	; 0x226 <__bad_interrupt>
      10:	0c 94 13 01 	jmp	0x226	; 0x226 <__bad_interrupt>
      14:	0c 94 13 01 	jmp	0x226	; 0x226 <__bad_interrupt>
      18:	0c 94 13 01 	jmp	0x226	; 0x226 <__bad_interrupt>
      1c:	0c 94 13 01 	jmp	0x226	; 0x226 <__bad_interrupt>
      20:	0c 94 13 01 	jmp	0x226	; 0x226 <__bad_interrupt>
      24:	0c 94 13 01 	jmp	0x226	; 0x226 <__bad_interrupt>
      28:	0c 94 13 01 	jmp	0x226	; 0x226 <__bad_interrupt>
      2c:	0c 94 13 01 	jmp	0x226	; 0x226 <__bad_interrupt>
      30:	0c 94 13 01 	jmp	0x226	; 0x226 <__bad_interrupt>
      34:	0c 94 13 01 	jmp	0x226	; 0x226 <__bad_interrupt>
      38:	0c 94 13 01 	jmp	0x226	; 0x226 <__bad_interrupt>
      3c:	0c 94 13 01 	jmp	0x226	; 0x226 <__bad_interrupt>
      40:	0c 94 13 01 	jmp	0x226	; 0x226 <__bad_interrupt>
      44:	0c 94 13 01 	jmp	0x226	; 0x226 <__bad_interrupt>
      48:	0c 94 13 01 	jmp	0x226	; 0x226 <__bad_interrupt>
      4c:	0c 94 13 01 	jmp	0x226	; 0x226 <__bad_interrupt>
      50:	0c 94 13 01 	jmp	0x226	; 0x226 <__bad_interrupt>
      54:	0c 94 13 01 	jmp	0x226	; 0x226 <__bad_interrupt>
      58:	0c 94 13 01 	jmp	0x226	; 0x226 <__bad_interrupt>
      5c:	0c 94 13 01 	jmp	0x226	; 0x226 <__bad_interrupt>
      60:	0c 94 13 01 	jmp	0x226	; 0x226 <__bad_interrupt>
      64:	0c 94 13 01 	jmp	0x226	; 0x226 <__bad_interrupt>
      68:	0c 94 13 01 	jmp	0x226	; 0x226 <__bad_interrupt>
      6c:	0c 94 13 01 	jmp	0x226	; 0x226 <__bad_interrupt>

00000070 <__trampolines_end>:
      70:	00 00       	nop
      72:	00 00       	nop
      74:	00 5c       	subi	r16, 0xC0	; 192
      76:	00 00       	nop
      78:	0c 00       	.word	0x000c	; ????
      7a:	0c 00       	.word	0x000c	; ????
      7c:	7c 28       	or	r7, r12
      7e:	7c 28       	or	r7, r12
      80:	58 dc       	rcall	.-1872   	; 0xfffff932 <__eeprom_end+0xff7ef932>
      82:	68 00       	.word	0x0068	; ????
      84:	24 10       	cpse	r2, r4
      86:	48 00       	.word	0x0048	; ????
      88:	28 54       	subi	r18, 0x48	; 72
      8a:	28 40       	sbci	r18, 0x08	; 8
      8c:	00 0c       	add	r0, r0
      8e:	00 00       	nop
      90:	00 78       	andi	r16, 0x80	; 128
      92:	84 00       	.word	0x0084	; ????
      94:	84 78       	andi	r24, 0x84	; 132
      96:	00 00       	nop
      98:	54 38       	cpi	r21, 0x84	; 132
      9a:	54 00       	.word	0x0054	; ????
      9c:	10 7c       	andi	r17, 0xC0	; 192
      9e:	10 00       	.word	0x0010	; ????
      a0:	80 40       	sbci	r24, 0x00	; 0
      a2:	00 00       	nop
      a4:	10 10       	cpse	r1, r0
      a6:	10 00       	.word	0x0010	; ????
      a8:	00 40       	sbci	r16, 0x00	; 0
      aa:	00 00       	nop
      ac:	60 10       	cpse	r6, r0
      ae:	0c 00       	.word	0x000c	; ????
      b0:	38 54       	subi	r19, 0x48	; 72
      b2:	38 00       	.word	0x0038	; ????
      b4:	48 7c       	andi	r20, 0xC8	; 200
      b6:	40 00       	.word	0x0040	; ????
      b8:	48 64       	ori	r20, 0x48	; 72
      ba:	58 00       	.word	0x0058	; ????
      bc:	44 54       	subi	r20, 0x44	; 68
      be:	2c 00       	.word	0x002c	; ????
      c0:	1c 10       	cpse	r1, r12
      c2:	7c 00       	.word	0x007c	; ????
      c4:	5c 54       	subi	r21, 0x4C	; 76
      c6:	24 00       	.word	0x0024	; ????
      c8:	38 54       	subi	r19, 0x48	; 72
      ca:	24 00       	.word	0x0024	; ????
      cc:	64 14       	cp	r6, r4
      ce:	0c 00       	.word	0x000c	; ????
      d0:	68 54       	subi	r22, 0x48	; 72
      d2:	2c 00       	.word	0x002c	; ????
      d4:	48 54       	subi	r20, 0x48	; 72
      d6:	38 00       	.word	0x0038	; ????
      d8:	00 48       	sbci	r16, 0x80	; 128
      da:	00 00       	nop
      dc:	80 48       	sbci	r24, 0x80	; 128
      de:	00 00       	nop
      e0:	10 28       	or	r1, r0
      e2:	44 00       	.word	0x0044	; ????
      e4:	28 28       	or	r2, r8
      e6:	28 00       	.word	0x0028	; ????
      e8:	44 28       	or	r4, r4
      ea:	10 00       	.word	0x0010	; ????
      ec:	04 54       	subi	r16, 0x44	; 68
      ee:	08 00       	.word	0x0008	; ????
      f0:	38 44       	sbci	r19, 0x48	; 72
      f2:	5c 00       	.word	0x005c	; ????
      f4:	78 14       	cp	r7, r8
      f6:	78 00       	.word	0x0078	; ????
      f8:	7c 54       	subi	r23, 0x4C	; 76
      fa:	28 00       	.word	0x0028	; ????
      fc:	38 44       	sbci	r19, 0x48	; 72
      fe:	28 00       	.word	0x0028	; ????
     100:	7c 44       	sbci	r23, 0x4C	; 76
     102:	38 00       	.word	0x0038	; ????
     104:	7c 54       	subi	r23, 0x4C	; 76
     106:	44 00       	.word	0x0044	; ????
     108:	7c 14       	cp	r7, r12
     10a:	04 00       	.word	0x0004	; ????
     10c:	38 44       	sbci	r19, 0x48	; 72
     10e:	74 00       	.word	0x0074	; ????
     110:	7c 10       	cpse	r7, r12
     112:	7c 00       	.word	0x007c	; ????
     114:	44 7c       	andi	r20, 0xC4	; 196
     116:	44 00       	.word	0x0044	; ????
     118:	20 40       	sbci	r18, 0x00	; 0
     11a:	3c 00       	.word	0x003c	; ????
     11c:	7c 10       	cpse	r7, r12
     11e:	6c 00       	.word	0x006c	; ????
     120:	7c 40       	sbci	r23, 0x0C	; 12
     122:	40 00       	.word	0x0040	; ????
     124:	7c 18       	sub	r7, r12
     126:	7c 00       	.word	0x007c	; ????
     128:	78 10       	cpse	r7, r8
     12a:	3c 00       	.word	0x003c	; ????
     12c:	38 44       	sbci	r19, 0x48	; 72
     12e:	38 00       	.word	0x0038	; ????
     130:	7c 14       	cp	r7, r12
     132:	08 00       	.word	0x0008	; ????
     134:	38 44       	sbci	r19, 0x48	; 72
     136:	b8 00       	.word	0x00b8	; ????
     138:	7c 14       	cp	r7, r12
     13a:	68 00       	.word	0x0068	; ????
     13c:	48 54       	subi	r20, 0x48	; 72
     13e:	24 00       	.word	0x0024	; ????
     140:	04 7c       	andi	r16, 0xC4	; 196
     142:	04 00       	.word	0x0004	; ????
     144:	7c 40       	sbci	r23, 0x0C	; 12
     146:	7c 00       	.word	0x007c	; ????
     148:	3c 60       	ori	r19, 0x0C	; 12
     14a:	3c 00       	.word	0x003c	; ????
     14c:	7c 30       	cpi	r23, 0x0C	; 12
     14e:	7c 00       	.word	0x007c	; ????
     150:	6c 10       	cpse	r6, r12
     152:	6c 00       	.word	0x006c	; ????
     154:	0c 70       	andi	r16, 0x0C	; 12
     156:	0c 00       	.word	0x000c	; ????
     158:	64 54       	subi	r22, 0x44	; 68
     15a:	4c 00       	.word	0x004c	; ????
     15c:	00 7c       	andi	r16, 0xC0	; 192
     15e:	44 00       	.word	0x0044	; ????
     160:	0c 10       	cpse	r0, r12
     162:	60 00       	.word	0x0060	; ????
     164:	44 7c       	andi	r20, 0xC4	; 196
     166:	00 00       	nop
     168:	08 04       	cpc	r0, r8
     16a:	08 00       	.word	0x0008	; ????
     16c:	80 80       	ld	r8, Z
     16e:	80 00       	.word	0x0080	; ????
     170:	00 04       	cpc	r0, r0
     172:	08 00       	.word	0x0008	; ????
     174:	30 48       	sbci	r19, 0x80	; 128
     176:	78 00       	.word	0x0078	; ????
     178:	7c 48       	sbci	r23, 0x8C	; 140
     17a:	30 00       	.word	0x0030	; ????
     17c:	30 48       	sbci	r19, 0x80	; 128
     17e:	48 00       	.word	0x0048	; ????
     180:	30 48       	sbci	r19, 0x80	; 128
     182:	7c 00       	.word	0x007c	; ????
     184:	30 68       	ori	r19, 0x80	; 128
     186:	50 00       	.word	0x0050	; ????
     188:	10 78       	andi	r17, 0x80	; 128
     18a:	14 00       	.word	0x0014	; ????
     18c:	90 a8       	ldd	r9, Z+48	; 0x30
     18e:	78 00       	.word	0x0078	; ????
     190:	7c 08       	sbc	r7, r12
     192:	70 00       	.word	0x0070	; ????
     194:	50 74       	andi	r21, 0x40	; 64
     196:	40 00       	.word	0x0040	; ????
     198:	80 80       	ld	r8, Z
     19a:	74 00       	.word	0x0074	; ????
     19c:	7c 10       	cpse	r7, r12
     19e:	68 00       	.word	0x0068	; ????
     1a0:	44 7c       	andi	r20, 0xC4	; 196
     1a2:	40 00       	.word	0x0040	; ????
     1a4:	78 10       	cpse	r7, r8
     1a6:	78 00       	.word	0x0078	; ????
     1a8:	78 08       	sbc	r7, r8
     1aa:	70 00       	.word	0x0070	; ????
     1ac:	30 48       	sbci	r19, 0x80	; 128
     1ae:	30 00       	.word	0x0030	; ????
     1b0:	f8 28       	or	r15, r8
     1b2:	10 00       	.word	0x0010	; ????
     1b4:	30 48       	sbci	r19, 0x80	; 128
     1b6:	f8 00       	.word	0x00f8	; ????
     1b8:	78 10       	cpse	r7, r8
     1ba:	08 00       	.word	0x0008	; ????
     1bc:	50 58       	subi	r21, 0x80	; 128
     1be:	28 00       	.word	0x0028	; ????
     1c0:	08 3c       	cpi	r16, 0xC8	; 200
     1c2:	48 00       	.word	0x0048	; ????
     1c4:	38 40       	sbci	r19, 0x08	; 8
     1c6:	78 00       	.word	0x0078	; ????
     1c8:	38 40       	sbci	r19, 0x08	; 8
     1ca:	38 00       	.word	0x0038	; ????
     1cc:	78 20       	and	r7, r8
     1ce:	78 00       	.word	0x0078	; ????
     1d0:	48 30       	cpi	r20, 0x08	; 8
     1d2:	48 00       	.word	0x0048	; ????
     1d4:	98 a0       	ldd	r9, Y+32	; 0x20
     1d6:	78 00       	.word	0x0078	; ????
     1d8:	48 68       	ori	r20, 0x88	; 136
     1da:	58 00       	.word	0x0058	; ????
     1dc:	10 78       	andi	r17, 0x80	; 128
     1de:	84 00       	.word	0x0084	; ????
     1e0:	00 7c       	andi	r16, 0xC0	; 192
     1e2:	00 00       	nop
     1e4:	84 78       	andi	r24, 0x84	; 132
     1e6:	10 00       	.word	0x0010	; ????
     1e8:	08 04       	cpc	r0, r8
     1ea:	08 04       	cpc	r0, r8

000001ec <__ctors_end>:
     1ec:	11 24       	eor	r1, r1
     1ee:	1f be       	out	0x3f, r1	; 63
     1f0:	cf ef       	ldi	r28, 0xFF	; 255
     1f2:	d4 e0       	ldi	r29, 0x04	; 4
     1f4:	de bf       	out	0x3e, r29	; 62
     1f6:	cd bf       	out	0x3d, r28	; 61

000001f8 <__do_copy_data>:
     1f8:	13 e0       	ldi	r17, 0x03	; 3
     1fa:	a0 e0       	ldi	r26, 0x00	; 0
     1fc:	b1 e0       	ldi	r27, 0x01	; 1
     1fe:	e2 e5       	ldi	r30, 0x52	; 82
     200:	f2 e1       	ldi	r31, 0x12	; 18
     202:	02 c0       	rjmp	.+4      	; 0x208 <__do_copy_data+0x10>
     204:	05 90       	lpm	r0, Z+
     206:	0d 92       	st	X+, r0
     208:	a2 3e       	cpi	r26, 0xE2	; 226
     20a:	b1 07       	cpc	r27, r17
     20c:	d9 f7       	brne	.-10     	; 0x204 <__do_copy_data+0xc>

0000020e <__do_clear_bss>:
     20e:	24 e0       	ldi	r18, 0x04	; 4
     210:	a2 ee       	ldi	r26, 0xE2	; 226
     212:	b3 e0       	ldi	r27, 0x03	; 3
     214:	01 c0       	rjmp	.+2      	; 0x218 <.do_clear_bss_start>

00000216 <.do_clear_bss_loop>:
     216:	1d 92       	st	X+, r1

00000218 <.do_clear_bss_start>:
     218:	a4 3b       	cpi	r26, 0xB4	; 180
     21a:	b2 07       	cpc	r27, r18
     21c:	e1 f7       	brne	.-8      	; 0x216 <.do_clear_bss_loop>
     21e:	0e 94 15 01 	call	0x22a	; 0x22a <main>
     222:	0c 94 27 09 	jmp	0x124e	; 0x124e <_exit>

00000226 <__bad_interrupt>:
     226:	0c 94 00 00 	jmp	0	; 0x0 <__vectors>

0000022a <main>:
#define MYUBRR FOSC/16/BAUD-1


int main(void)
{	
	DDRE=0x3;
     22a:	83 e0       	ldi	r24, 0x03	; 3
     22c:	86 b9       	out	0x06, r24	; 6
	DDRA=0xFF;
     22e:	8f ef       	ldi	r24, 0xFF	; 255
     230:	8a bb       	out	0x1a, r24	; 26
	PORTA=0x00;
     232:	1b ba       	out	0x1b, r1	; 27
	PORTE=0x2;
     234:	82 e0       	ldi	r24, 0x02	; 2
     236:	87 b9       	out	0x07, r24	; 7
	
	UART_Init(MYUBRR);
     238:	8f e1       	ldi	r24, 0x1F	; 31
     23a:	90 e0       	ldi	r25, 0x00	; 0
     23c:	0e 94 30 07 	call	0xe60	; 0xe60 <UART_Init>
	printf("Atmega162 start\n");
     240:	86 e0       	ldi	r24, 0x06	; 6
     242:	91 e0       	ldi	r25, 0x01	; 1
     244:	0e 94 b0 07 	call	0xf60	; 0xf60 <puts>
	
	
	game_init();	//Includes all inits necessary to be able to play the game and navigate in menu
     248:	0e 94 36 02 	call	0x46c	; 0x46c <game_init>

	//play_game();
	menu_print();
     24c:	0e 94 79 04 	call	0x8f2	; 0x8f2 <menu_print>
	
	while(1){
		menu_arrow();
     250:	0e 94 50 04 	call	0x8a0	; 0x8a0 <menu_arrow>
		
		//play_game();  //menu_print(); while(current_node == &ingame_node){ }
		draw_game();  //menu_print(); while(current_node == &draw_node){ }
     254:	0e 94 4a 02 	call	0x494	; 0x494 <draw_game>
	#else
		//round up by default
		__ticks_dc = (uint32_t)(ceil(fabs(__tmp)));
	#endif

	__builtin_avr_delay_cycles(__ticks_dc);
     258:	2f e7       	ldi	r18, 0x7F	; 127
     25a:	88 e3       	ldi	r24, 0x38	; 56
     25c:	91 e0       	ldi	r25, 0x01	; 1
     25e:	21 50       	subi	r18, 0x01	; 1
     260:	80 40       	sbci	r24, 0x00	; 0
     262:	90 40       	sbci	r25, 0x00	; 0
     264:	e1 f7       	brne	.-8      	; 0x25e <main+0x34>
     266:	00 c0       	rjmp	.+0      	; 0x268 <main+0x3e>
     268:	00 00       	nop
     26a:	f2 cf       	rjmp	.-28     	; 0x250 <main+0x26>

0000026c <CAN_init>:
#define RX0IF 0



void CAN_init(){
	MCP2515_init();
     26c:	0e 94 47 03 	call	0x68e	; 0x68e <MCP2515_init>
	
	bit_modify_MCP2515(MCP_RXB0CTRL, 0b01100000, 0xff);//set filters off
     270:	4f ef       	ldi	r20, 0xFF	; 255
     272:	60 e6       	ldi	r22, 0x60	; 96
     274:	80 e6       	ldi	r24, 0x60	; 96
     276:	0e 94 25 03 	call	0x64a	; 0x64a <bit_modify_MCP2515>
	bit_modify_MCP2515( MCP_RXB0CTRL, 0b00000100, 0x00);//set rollover off
     27a:	40 e0       	ldi	r20, 0x00	; 0
     27c:	64 e0       	ldi	r22, 0x04	; 4
     27e:	80 e6       	ldi	r24, 0x60	; 96
     280:	0e 94 25 03 	call	0x64a	; 0x64a <bit_modify_MCP2515>

	bit_modify_MCP2515(MCP_CANINTE, 0x05, 0b00000101);//Set RX0 full and TX0 empty enable interrupt
     284:	45 e0       	ldi	r20, 0x05	; 5
     286:	65 e0       	ldi	r22, 0x05	; 5
     288:	8b e2       	ldi	r24, 0x2B	; 43
     28a:	0e 94 25 03 	call	0x64a	; 0x64a <bit_modify_MCP2515>
	
	//bit_modify_MCP2515(MCP_CANCTRL,0xE0,MODE_LOOPBACK);//Enables loop back mode
	bit_modify_MCP2515(MCP_CANCTRL,0xE0,MODE_NORMAL);//Enables normal mode
     28e:	40 e0       	ldi	r20, 0x00	; 0
     290:	60 ee       	ldi	r22, 0xE0	; 224
     292:	8f e0       	ldi	r24, 0x0F	; 15
     294:	0e 94 25 03 	call	0x64a	; 0x64a <bit_modify_MCP2515>
     298:	08 95       	ret

0000029a <rcv_CAN_message>:
	/*REQUEST TO SEND*/
	request_to_send_MCP2515(0x01);// Setting the TXBnCTRL for buffer 0.
}


CAN_struct rcv_CAN_message(){
     29a:	9f 92       	push	r9
     29c:	af 92       	push	r10
     29e:	bf 92       	push	r11
     2a0:	cf 92       	push	r12
     2a2:	df 92       	push	r13
     2a4:	ef 92       	push	r14
     2a6:	ff 92       	push	r15
     2a8:	0f 93       	push	r16
     2aa:	1f 93       	push	r17
     2ac:	cf 93       	push	r28
     2ae:	df 93       	push	r29
     2b0:	cd b7       	in	r28, 0x3d	; 61
     2b2:	de b7       	in	r29, 0x3e	; 62
     2b4:	62 97       	sbiw	r28, 0x12	; 18
     2b6:	0f b6       	in	r0, 0x3f	; 63
     2b8:	f8 94       	cli
     2ba:	de bf       	out	0x3e, r29	; 62
     2bc:	0f be       	out	0x3f, r0	; 63
     2be:	cd bf       	out	0x3d, r28	; 61
     2c0:	6c 01       	movw	r12, r24
	CAN_struct msg;
	
	while (!(read_MCP2515(MCP_CANINTF) & (1<<RX0IF))) {} //wait for interrupt
     2c2:	8c e2       	ldi	r24, 0x2C	; 44
     2c4:	0e 94 f2 02 	call	0x5e4	; 0x5e4 <read_MCP2515>
     2c8:	80 ff       	sbrs	r24, 0
     2ca:	fb cf       	rjmp	.-10     	; 0x2c2 <rcv_CAN_message+0x28>
	msg.ID=((read_MCP2515(MCP_RXB0SIDH))<<3|((read_MCP2515(MCP_RXB0SIDL))>>5));
     2cc:	81 e6       	ldi	r24, 0x61	; 97
     2ce:	0e 94 f2 02 	call	0x5e4	; 0x5e4 <read_MCP2515>
     2d2:	98 2e       	mov	r9, r24
     2d4:	82 e6       	ldi	r24, 0x62	; 98
     2d6:	0e 94 f2 02 	call	0x5e4	; 0x5e4 <read_MCP2515>
     2da:	99 0c       	add	r9, r9
     2dc:	99 0c       	add	r9, r9
     2de:	99 0c       	add	r9, r9
     2e0:	82 95       	swap	r24
     2e2:	86 95       	lsr	r24
     2e4:	87 70       	andi	r24, 0x07	; 7
     2e6:	98 2a       	or	r9, r24
	msg.length=	(int)(read_MCP2515(MCP_RXB0_DLC) & 0x0f);
     2e8:	85 e6       	ldi	r24, 0x65	; 101
     2ea:	0e 94 f2 02 	call	0x5e4	; 0x5e4 <read_MCP2515>
     2ee:	8f 70       	andi	r24, 0x0F	; 15
     2f0:	a8 2e       	mov	r10, r24
	
	/*READING DATA FROM DATABUFFER*/
	for (int i=0; i < msg.length; i++){
     2f2:	d1 f0       	breq	.+52     	; 0x328 <rcv_CAN_message+0x8e>
     2f4:	8e 01       	movw	r16, r28
     2f6:	0d 5f       	subi	r16, 0xFD	; 253
     2f8:	1f 4f       	sbci	r17, 0xFF	; 255
     2fa:	e8 2e       	mov	r14, r24
     2fc:	f1 2c       	mov	r15, r1
     2fe:	ee 0c       	add	r14, r14
     300:	ff 1c       	adc	r15, r15
     302:	e0 0e       	add	r14, r16
     304:	f1 1e       	adc	r15, r17
     306:	0f 2e       	mov	r0, r31
     308:	f6 e6       	ldi	r31, 0x66	; 102
     30a:	bf 2e       	mov	r11, r31
     30c:	f0 2d       	mov	r31, r0
		msg.data[i]= read_MCP2515(MCP_RXB0_D0+i);
     30e:	8b 2d       	mov	r24, r11
     310:	0e 94 f2 02 	call	0x5e4	; 0x5e4 <read_MCP2515>
     314:	28 2f       	mov	r18, r24
     316:	30 e0       	ldi	r19, 0x00	; 0
     318:	f8 01       	movw	r30, r16
     31a:	21 93       	st	Z+, r18
     31c:	31 93       	st	Z+, r19
     31e:	8f 01       	movw	r16, r30
     320:	b3 94       	inc	r11
	while (!(read_MCP2515(MCP_CANINTF) & (1<<RX0IF))) {} //wait for interrupt
	msg.ID=((read_MCP2515(MCP_RXB0SIDH))<<3|((read_MCP2515(MCP_RXB0SIDL))>>5));
	msg.length=	(int)(read_MCP2515(MCP_RXB0_DLC) & 0x0f);
	
	/*READING DATA FROM DATABUFFER*/
	for (int i=0; i < msg.length; i++){
     322:	ee 15       	cp	r30, r14
     324:	ff 05       	cpc	r31, r15
     326:	99 f7       	brne	.-26     	; 0x30e <rcv_CAN_message+0x74>
		msg.data[i]= read_MCP2515(MCP_RXB0_D0+i);
	}
	if (msg.ID==HIGHSCORE_ID){
     328:	91 10       	cpse	r9, r1
     32a:	03 c0       	rjmp	.+6      	; 0x332 <rcv_CAN_message+0x98>
		/*Store the highscore somewhere, do something useful. */
		highscore= msg.data[0];
     32c:	8b 81       	ldd	r24, Y+3	; 0x03
     32e:	80 93 a3 04 	sts	0x04A3, r24
	}
		
	//MUST clear RXB0IF after reading message
	bit_modify_MCP2515(MCP_CANINTF, (1<<RX0IF),0x00);
     332:	40 e0       	ldi	r20, 0x00	; 0
     334:	61 e0       	ldi	r22, 0x01	; 1
     336:	8c e2       	ldi	r24, 0x2C	; 44
     338:	0e 94 25 03 	call	0x64a	; 0x64a <bit_modify_MCP2515>
	rcv_new_highscore_flag=0; 
     33c:	10 92 a4 04 	sts	0x04A4, r1
	return msg;
     340:	99 82       	std	Y+1, r9	; 0x01
     342:	aa 82       	std	Y+2, r10	; 0x02
     344:	82 e1       	ldi	r24, 0x12	; 18
     346:	fe 01       	movw	r30, r28
     348:	31 96       	adiw	r30, 0x01	; 1
     34a:	d6 01       	movw	r26, r12
     34c:	01 90       	ld	r0, Z+
     34e:	0d 92       	st	X+, r0
     350:	8a 95       	dec	r24
     352:	e1 f7       	brne	.-8      	; 0x34c <rcv_CAN_message+0xb2>
}
     354:	c6 01       	movw	r24, r12
     356:	62 96       	adiw	r28, 0x12	; 18
     358:	0f b6       	in	r0, 0x3f	; 63
     35a:	f8 94       	cli
     35c:	de bf       	out	0x3e, r29	; 62
     35e:	0f be       	out	0x3f, r0	; 63
     360:	cd bf       	out	0x3d, r28	; 61
     362:	df 91       	pop	r29
     364:	cf 91       	pop	r28
     366:	1f 91       	pop	r17
     368:	0f 91       	pop	r16
     36a:	ff 90       	pop	r15
     36c:	ef 90       	pop	r14
     36e:	df 90       	pop	r13
     370:	cf 90       	pop	r12
     372:	bf 90       	pop	r11
     374:	af 90       	pop	r10
     376:	9f 90       	pop	r9
     378:	08 95       	ret

0000037a <send_CAN_message>:
	
	//bit_modify_MCP2515(MCP_CANCTRL,0xE0,MODE_LOOPBACK);//Enables loop back mode
	bit_modify_MCP2515(MCP_CANCTRL,0xE0,MODE_NORMAL);//Enables normal mode
}

void send_CAN_message(struct CAN_struct msg){
     37a:	8f 92       	push	r8
     37c:	9f 92       	push	r9
     37e:	af 92       	push	r10
     380:	bf 92       	push	r11
     382:	cf 92       	push	r12
     384:	df 92       	push	r13
     386:	ef 92       	push	r14
     388:	ff 92       	push	r15
     38a:	0f 93       	push	r16
     38c:	1f 93       	push	r17
     38e:	cf 93       	push	r28
     390:	df 93       	push	r29
     392:	cd b7       	in	r28, 0x3d	; 61
     394:	de b7       	in	r29, 0x3e	; 62
     396:	a4 97       	sbiw	r28, 0x24	; 36
     398:	0f b6       	in	r0, 0x3f	; 63
     39a:	f8 94       	cli
     39c:	de bf       	out	0x3e, r29	; 62
     39e:	0f be       	out	0x3f, r0	; 63
     3a0:	cd bf       	out	0x3d, r28	; 61
     3a2:	89 82       	std	Y+1, r8	; 0x01
     3a4:	9a 82       	std	Y+2, r9	; 0x02
     3a6:	ab 82       	std	Y+3, r10	; 0x03
     3a8:	bc 82       	std	Y+4, r11	; 0x04
     3aa:	cd 82       	std	Y+5, r12	; 0x05
     3ac:	de 82       	std	Y+6, r13	; 0x06
     3ae:	ef 82       	std	Y+7, r14	; 0x07
     3b0:	f8 86       	std	Y+8, r15	; 0x08
     3b2:	09 87       	std	Y+9, r16	; 0x09
     3b4:	1a 87       	std	Y+10, r17	; 0x0a
     3b6:	2b 87       	std	Y+11, r18	; 0x0b
     3b8:	3c 87       	std	Y+12, r19	; 0x0c
     3ba:	4d 87       	std	Y+13, r20	; 0x0d
     3bc:	5e 87       	std	Y+14, r21	; 0x0e
     3be:	6f 87       	std	Y+15, r22	; 0x0f
     3c0:	78 8b       	std	Y+16, r23	; 0x10
     3c2:	89 8b       	std	Y+17, r24	; 0x11
     3c4:	9a 8b       	std	Y+18, r25	; 0x12
     3c6:	c9 2c       	mov	r12, r9
	while (read_MCP2515(MCP_TXB0CTRL) & (1<<TXREQ)){//will be cleared when finished
		if (read_MCP2515(MCP_TXB0CTRL)&(1<<MLOA)){ //Message lost arbitration while being sent, means we have a message from Arduino
			rcv_new_highscore_flag=1;
     3c8:	11 e0       	ldi	r17, 0x01	; 1
	//bit_modify_MCP2515(MCP_CANCTRL,0xE0,MODE_LOOPBACK);//Enables loop back mode
	bit_modify_MCP2515(MCP_CANCTRL,0xE0,MODE_NORMAL);//Enables normal mode
}

void send_CAN_message(struct CAN_struct msg){
	while (read_MCP2515(MCP_TXB0CTRL) & (1<<TXREQ)){//will be cleared when finished
     3ca:	0b c0       	rjmp	.+22     	; 0x3e2 <send_CAN_message+0x68>
		if (read_MCP2515(MCP_TXB0CTRL)&(1<<MLOA)){ //Message lost arbitration while being sent, means we have a message from Arduino
     3cc:	80 e3       	ldi	r24, 0x30	; 48
     3ce:	0e 94 f2 02 	call	0x5e4	; 0x5e4 <read_MCP2515>
     3d2:	85 ff       	sbrs	r24, 5
     3d4:	06 c0       	rjmp	.+12     	; 0x3e2 <send_CAN_message+0x68>
			rcv_new_highscore_flag=1;
     3d6:	10 93 a4 04 	sts	0x04A4, r17
			rcv_CAN_message();
     3da:	ce 01       	movw	r24, r28
     3dc:	43 96       	adiw	r24, 0x13	; 19
     3de:	0e 94 4d 01 	call	0x29a	; 0x29a <rcv_CAN_message>
	//bit_modify_MCP2515(MCP_CANCTRL,0xE0,MODE_LOOPBACK);//Enables loop back mode
	bit_modify_MCP2515(MCP_CANCTRL,0xE0,MODE_NORMAL);//Enables normal mode
}

void send_CAN_message(struct CAN_struct msg){
	while (read_MCP2515(MCP_TXB0CTRL) & (1<<TXREQ)){//will be cleared when finished
     3e2:	80 e3       	ldi	r24, 0x30	; 48
     3e4:	0e 94 f2 02 	call	0x5e4	; 0x5e4 <read_MCP2515>
     3e8:	83 fd       	sbrc	r24, 3
     3ea:	f0 cf       	rjmp	.-32     	; 0x3cc <send_CAN_message+0x52>
			}
			//wait until finished transmitting
	}

	//load SIDL
	write_MCP2515(MCP_TXB0_SIDL, msg.ID << 5);
     3ec:	68 2d       	mov	r22, r8
     3ee:	62 95       	swap	r22
     3f0:	66 0f       	add	r22, r22
     3f2:	60 7e       	andi	r22, 0xE0	; 224
     3f4:	82 e3       	ldi	r24, 0x32	; 50
     3f6:	0e 94 04 03 	call	0x608	; 0x608 <write_MCP2515>
	
	//load SIDH
	write_MCP2515(MCP_TXB0_SIDH, msg.ID >> 3);
     3fa:	68 2d       	mov	r22, r8
     3fc:	66 95       	lsr	r22
     3fe:	66 95       	lsr	r22
     400:	66 95       	lsr	r22
     402:	81 e3       	ldi	r24, 0x31	; 49
     404:	0e 94 04 03 	call	0x608	; 0x608 <write_MCP2515>

	write_MCP2515(MCP_TXB0_DLC,(char)msg.length);
     408:	6c 2d       	mov	r22, r12
     40a:	85 e3       	ldi	r24, 0x35	; 53
     40c:	0e 94 04 03 	call	0x608	; 0x608 <write_MCP2515>

	/*PUTTING DATA IN DATABUFFER*/
	for (int i=0; i < msg.length; i++){
     410:	d1 2c       	mov	r13, r1
     412:	1c 14       	cp	r1, r12
     414:	1d 04       	cpc	r1, r13
     416:	a4 f4       	brge	.+40     	; 0x440 <send_CAN_message+0xc6>
     418:	7e 01       	movw	r14, r28
     41a:	83 e0       	ldi	r24, 0x03	; 3
     41c:	e8 0e       	add	r14, r24
     41e:	f1 1c       	adc	r15, r1
     420:	00 e0       	ldi	r16, 0x00	; 0
     422:	10 e0       	ldi	r17, 0x00	; 0
		write_MCP2515(MCP_TXB0_D0+i,(char)msg.data[i]);
     424:	f7 01       	movw	r30, r14
     426:	60 81       	ld	r22, Z
     428:	f2 e0       	ldi	r31, 0x02	; 2
     42a:	ef 0e       	add	r14, r31
     42c:	f1 1c       	adc	r15, r1
     42e:	86 e3       	ldi	r24, 0x36	; 54
     430:	80 0f       	add	r24, r16
     432:	0e 94 04 03 	call	0x608	; 0x608 <write_MCP2515>
	write_MCP2515(MCP_TXB0_SIDH, msg.ID >> 3);

	write_MCP2515(MCP_TXB0_DLC,(char)msg.length);

	/*PUTTING DATA IN DATABUFFER*/
	for (int i=0; i < msg.length; i++){
     436:	0f 5f       	subi	r16, 0xFF	; 255
     438:	1f 4f       	sbci	r17, 0xFF	; 255
     43a:	0c 15       	cp	r16, r12
     43c:	1d 05       	cpc	r17, r13
     43e:	94 f3       	brlt	.-28     	; 0x424 <send_CAN_message+0xaa>
		write_MCP2515(MCP_TXB0_D0+i,(char)msg.data[i]);
	}

	/*REQUEST TO SEND*/
	request_to_send_MCP2515(0x01);// Setting the TXBnCTRL for buffer 0.
     440:	81 e0       	ldi	r24, 0x01	; 1
     442:	0e 94 18 03 	call	0x630	; 0x630 <request_to_send_MCP2515>
}
     446:	a4 96       	adiw	r28, 0x24	; 36
     448:	0f b6       	in	r0, 0x3f	; 63
     44a:	f8 94       	cli
     44c:	de bf       	out	0x3e, r29	; 62
     44e:	0f be       	out	0x3f, r0	; 63
     450:	cd bf       	out	0x3d, r28	; 61
     452:	df 91       	pop	r29
     454:	cf 91       	pop	r28
     456:	1f 91       	pop	r17
     458:	0f 91       	pop	r16
     45a:	ff 90       	pop	r15
     45c:	ef 90       	pop	r14
     45e:	df 90       	pop	r13
     460:	cf 90       	pop	r12
     462:	bf 90       	pop	r11
     464:	af 90       	pop	r10
     466:	9f 90       	pop	r9
     468:	8f 90       	pop	r8
     46a:	08 95       	ret

0000046c <game_init>:
//#define DEBUG 0



void game_init(){
	DDRE=0x3;
     46c:	83 e0       	ldi	r24, 0x03	; 3
     46e:	86 b9       	out	0x06, r24	; 6
	PORTE=0x2;
     470:	82 e0       	ldi	r24, 0x02	; 2
     472:	87 b9       	out	0x07, r24	; 7
	DDRA=0xFF; //All A pins set as output 
     474:	8f ef       	ldi	r24, 0xFF	; 255
     476:	8a bb       	out	0x1a, r24	; 26
	PORTA=0x00; 
     478:	1b ba       	out	0x1b, r1	; 27
	rcv_new_highscore_flag=0;
     47a:	10 92 a4 04 	sts	0x04A4, r1
	
	/*Initializing all we need to play the game*/
	memory_init();
     47e:	0e 94 4c 03 	call	0x698	; 0x698 <memory_init>
	CAN_init();
     482:	0e 94 36 01 	call	0x26c	; 0x26c <CAN_init>
	slider_init();	
     486:	0e 94 04 07 	call	0xe08	; 0xe08 <slider_init>
	joy_init();
     48a:	0e 94 63 02 	call	0x4c6	; 0x4c6 <joy_init>
	menu_init();
     48e:	0e 94 53 03 	call	0x6a6	; 0x6a6 <menu_init>
     492:	08 95       	ret

00000494 <draw_game>:
 	
}


void draw_game(){
	menu_print();
     494:	0e 94 79 04 	call	0x8f2	; 0x8f2 <menu_print>
	
	
	while (current_node == &draw_node){
     498:	80 91 88 04 	lds	r24, 0x0488
     49c:	90 91 89 04 	lds	r25, 0x0489
     4a0:	84 53       	subi	r24, 0x34	; 52
     4a2:	94 40       	sbci	r25, 0x04	; 4
     4a4:	79 f4       	brne	.+30     	; 0x4c4 <draw_game+0x30>
		draw_OLED();
     4a6:	0e 94 fb 06 	call	0xdf6	; 0xdf6 <draw_OLED>
     4aa:	87 ea       	ldi	r24, 0xA7	; 167
     4ac:	91 e6       	ldi	r25, 0x61	; 97
     4ae:	01 97       	sbiw	r24, 0x01	; 1
     4b0:	f1 f7       	brne	.-4      	; 0x4ae <draw_game+0x1a>
     4b2:	00 c0       	rjmp	.+0      	; 0x4b4 <draw_game+0x20>
     4b4:	00 00       	nop

void draw_game(){
	menu_print();
	
	
	while (current_node == &draw_node){
     4b6:	80 91 88 04 	lds	r24, 0x0488
     4ba:	90 91 89 04 	lds	r25, 0x0489
     4be:	84 53       	subi	r24, 0x34	; 52
     4c0:	94 40       	sbci	r25, 0x04	; 4
     4c2:	89 f3       	breq	.-30     	; 0x4a6 <draw_game+0x12>
     4c4:	08 95       	ret

000004c6 <joy_init>:


uint8_t get_joy_position(ADC_channel adc_ch){
	volatile char *ext_adc = (char *) 0x1400; // Start address for the ADC
	
	*ext_adc	= adc_ch;
     4c6:	85 e0       	ldi	r24, 0x05	; 5
     4c8:	80 93 00 14 	sts	0x1400, r24
	#else
		//round up by default
		__ticks_dc = (uint32_t)(ceil(fabs(__tmp)));
	#endif

	__builtin_avr_delay_cycles(__ticks_dc);
     4cc:	8d e0       	ldi	r24, 0x0D	; 13
     4ce:	8a 95       	dec	r24
     4d0:	f1 f7       	brne	.-4      	; 0x4ce <joy_init+0x8>
     4d2:	00 00       	nop
	_delay_us(40);//delay kan justeres ned til 20 mikro, sidan klokka går på 4915200
	////connect interruptsignal til pbx. if(PBx=1){}...
	uint8_t position = *ext_adc;
     4d4:	e0 e0       	ldi	r30, 0x00	; 0
     4d6:	f4 e1       	ldi	r31, 0x14	; 20
     4d8:	80 81       	ld	r24, Z
	int x_pos;
	int y_pos;
} null_position;

void joy_init(){
	null_position.x_pos = get_joy_position(JOY_X);
     4da:	90 e0       	ldi	r25, 0x00	; 0
     4dc:	90 93 a6 04 	sts	0x04A6, r25
     4e0:	80 93 a5 04 	sts	0x04A5, r24


uint8_t get_joy_position(ADC_channel adc_ch){
	volatile char *ext_adc = (char *) 0x1400; // Start address for the ADC
	
	*ext_adc	= adc_ch;
     4e4:	84 e0       	ldi	r24, 0x04	; 4
     4e6:	80 83       	st	Z, r24
     4e8:	8d e0       	ldi	r24, 0x0D	; 13
     4ea:	8a 95       	dec	r24
     4ec:	f1 f7       	brne	.-4      	; 0x4ea <joy_init+0x24>
     4ee:	00 00       	nop
	_delay_us(40);//delay kan justeres ned til 20 mikro, sidan klokka går på 4915200
	////connect interruptsignal til pbx. if(PBx=1){}...
	uint8_t position = *ext_adc;
     4f0:	80 91 00 14 	lds	r24, 0x1400
	int y_pos;
} null_position;

void joy_init(){
	null_position.x_pos = get_joy_position(JOY_X);
	null_position.y_pos = get_joy_position(JOY_Y);
     4f4:	90 e0       	ldi	r25, 0x00	; 0
     4f6:	90 93 a8 04 	sts	0x04A8, r25
     4fa:	80 93 a7 04 	sts	0x04A7, r24
     4fe:	08 95       	ret

00000500 <joy_relative_pos>:


uint8_t get_joy_position(ADC_channel adc_ch){
	volatile char *ext_adc = (char *) 0x1400; // Start address for the ADC
	
	*ext_adc	= adc_ch;
     500:	84 e0       	ldi	r24, 0x04	; 4
     502:	80 93 00 14 	sts	0x1400, r24
     506:	8d e0       	ldi	r24, 0x0D	; 13
     508:	8a 95       	dec	r24
     50a:	f1 f7       	brne	.-4      	; 0x508 <joy_relative_pos+0x8>
     50c:	00 00       	nop
	_delay_us(40);//delay kan justeres ned til 20 mikro, sidan klokka går på 4915200
	////connect interruptsignal til pbx. if(PBx=1){}...
	uint8_t position = *ext_adc;
     50e:	e0 e0       	ldi	r30, 0x00	; 0
     510:	f4 e1       	ldi	r31, 0x14	; 20
     512:	20 81       	ld	r18, Z
	null_position.x_pos = get_joy_position(JOY_X);
	null_position.y_pos = get_joy_position(JOY_Y);
}

void joy_relative_pos(){
	int y= get_joy_position(JOY_Y);
     514:	30 e0       	ldi	r19, 0x00	; 0
	//rel_position.y_pos=(int)(y-null_position.y_pos)*100/127;
	rel_position.y_pos=(int)(y-null_position.y_pos)*(JOY_MAX-1)/127;
     516:	80 91 a7 04 	lds	r24, 0x04A7
     51a:	90 91 a8 04 	lds	r25, 0x04A8
     51e:	28 1b       	sub	r18, r24
     520:	39 0b       	sbc	r19, r25
     522:	43 e6       	ldi	r20, 0x63	; 99
     524:	42 9f       	mul	r20, r18
     526:	c0 01       	movw	r24, r0
     528:	43 9f       	mul	r20, r19
     52a:	90 0d       	add	r25, r0
     52c:	11 24       	eor	r1, r1
     52e:	6f e7       	ldi	r22, 0x7F	; 127
     530:	70 e0       	ldi	r23, 0x00	; 0
     532:	0e 94 3d 07 	call	0xe7a	; 0xe7a <__divmodhi4>
     536:	70 93 5f 04 	sts	0x045F, r23
     53a:	60 93 5e 04 	sts	0x045E, r22


uint8_t get_joy_position(ADC_channel adc_ch){
	volatile char *ext_adc = (char *) 0x1400; // Start address for the ADC
	
	*ext_adc	= adc_ch;
     53e:	85 e0       	ldi	r24, 0x05	; 5
     540:	80 83       	st	Z, r24
     542:	8d e0       	ldi	r24, 0x0D	; 13
     544:	8a 95       	dec	r24
     546:	f1 f7       	brne	.-4      	; 0x544 <joy_relative_pos+0x44>
     548:	00 00       	nop
	_delay_us(40);//delay kan justeres ned til 20 mikro, sidan klokka går på 4915200
	////connect interruptsignal til pbx. if(PBx=1){}...
	uint8_t position = *ext_adc;
     54a:	20 91 00 14 	lds	r18, 0x1400

void joy_relative_pos(){
	int y= get_joy_position(JOY_Y);
	//rel_position.y_pos=(int)(y-null_position.y_pos)*100/127;
	rel_position.y_pos=(int)(y-null_position.y_pos)*(JOY_MAX-1)/127;
	int x= get_joy_position(JOY_X);
     54e:	30 e0       	ldi	r19, 0x00	; 0
	//rel_position.x_pos=(int)(x-null_position.x_pos)*100/127;
	rel_position.x_pos=(int)(x-null_position.x_pos)*(JOY_MAX-1)/127;
     550:	80 91 a5 04 	lds	r24, 0x04A5
     554:	90 91 a6 04 	lds	r25, 0x04A6
     558:	28 1b       	sub	r18, r24
     55a:	39 0b       	sbc	r19, r25
     55c:	42 9f       	mul	r20, r18
     55e:	c0 01       	movw	r24, r0
     560:	43 9f       	mul	r20, r19
     562:	90 0d       	add	r25, r0
     564:	11 24       	eor	r1, r1
     566:	6f e7       	ldi	r22, 0x7F	; 127
     568:	70 e0       	ldi	r23, 0x00	; 0
     56a:	0e 94 3d 07 	call	0xe7a	; 0xe7a <__divmodhi4>
     56e:	70 93 5d 04 	sts	0x045D, r23
     572:	60 93 5c 04 	sts	0x045C, r22
     576:	08 95       	ret

00000578 <get_joy_direction>:
	//legg inn rom for neutral f.eks. <20%. 
	joy_direction x_dir=NEUTRAL;
	joy_direction y_dir=NEUTRAL;
	int8_t priority=1; 
	
	if (abs(rel_position.x_pos)>abs(rel_position.y_pos)){
     578:	80 91 5c 04 	lds	r24, 0x045C
     57c:	90 91 5d 04 	lds	r25, 0x045D
     580:	20 91 5e 04 	lds	r18, 0x045E
     584:	30 91 5f 04 	lds	r19, 0x045F
     588:	bc 01       	movw	r22, r24
     58a:	99 23       	and	r25, r25
     58c:	24 f4       	brge	.+8      	; 0x596 <get_joy_direction+0x1e>
     58e:	66 27       	eor	r22, r22
     590:	77 27       	eor	r23, r23
     592:	68 1b       	sub	r22, r24
     594:	79 0b       	sbc	r23, r25
     596:	a9 01       	movw	r20, r18
     598:	33 23       	and	r19, r19
     59a:	24 f4       	brge	.+8      	; 0x5a4 <get_joy_direction+0x2c>
     59c:	44 27       	eor	r20, r20
     59e:	55 27       	eor	r21, r21
     5a0:	42 1b       	sub	r20, r18
     5a2:	53 0b       	sbc	r21, r19
		priority=0;
	}
	
	if(! priority){
     5a4:	46 17       	cp	r20, r22
     5a6:	57 07       	cpc	r21, r23
     5a8:	7c f4       	brge	.+30     	; 0x5c8 <get_joy_direction+0x50>
		if (rel_position.x_pos>=-JOY_NEUTRAL && rel_position.x_pos<=JOY_NEUTRAL){
     5aa:	9c 01       	movw	r18, r24
     5ac:	2c 5e       	subi	r18, 0xEC	; 236
     5ae:	3f 4f       	sbci	r19, 0xFF	; 255
     5b0:	29 32       	cpi	r18, 0x29	; 41
     5b2:	31 05       	cpc	r19, r1
     5b4:	20 f0       	brcs	.+8      	; 0x5be <get_joy_direction+0x46>
		x_dir=NEUTRAL;
		}
		else if (rel_position.x_pos>=JOY_NEUTRAL){
     5b6:	44 97       	sbiw	r24, 0x14	; 20
     5b8:	24 f0       	brlt	.+8      	; 0x5c2 <get_joy_direction+0x4a>
			x_dir=RIGHT;
     5ba:	82 e0       	ldi	r24, 0x02	; 2
     5bc:	03 c0       	rjmp	.+6      	; 0x5c4 <get_joy_direction+0x4c>
		priority=0;
	}
	
	if(! priority){
		if (rel_position.x_pos>=-JOY_NEUTRAL && rel_position.x_pos<=JOY_NEUTRAL){
		x_dir=NEUTRAL;
     5be:	80 e0       	ldi	r24, 0x00	; 0
     5c0:	01 c0       	rjmp	.+2      	; 0x5c4 <get_joy_direction+0x4c>
		}
		else if (rel_position.x_pos>=JOY_NEUTRAL){
			x_dir=RIGHT;
		}
		else{
			x_dir=LEFT;
     5c2:	81 e0       	ldi	r24, 0x01	; 1
		}	
		return x_dir;
     5c4:	90 e0       	ldi	r25, 0x00	; 0
     5c6:	08 95       	ret
	}
	else{
		if (rel_position.y_pos>=-JOY_NEUTRAL && rel_position.y_pos<=JOY_NEUTRAL){
     5c8:	c9 01       	movw	r24, r18
     5ca:	44 96       	adiw	r24, 0x14	; 20
     5cc:	89 97       	sbiw	r24, 0x29	; 41
     5ce:	28 f0       	brcs	.+10     	; 0x5da <get_joy_direction+0x62>
			y_dir=NEUTRAL;
		}
		else if (rel_position.y_pos>=JOY_NEUTRAL){
     5d0:	24 31       	cpi	r18, 0x14	; 20
     5d2:	31 05       	cpc	r19, r1
     5d4:	24 f0       	brlt	.+8      	; 0x5de <get_joy_direction+0x66>
			y_dir=UP;
     5d6:	83 e0       	ldi	r24, 0x03	; 3
     5d8:	03 c0       	rjmp	.+6      	; 0x5e0 <get_joy_direction+0x68>
		}	
		return x_dir;
	}
	else{
		if (rel_position.y_pos>=-JOY_NEUTRAL && rel_position.y_pos<=JOY_NEUTRAL){
			y_dir=NEUTRAL;
     5da:	80 e0       	ldi	r24, 0x00	; 0
     5dc:	01 c0       	rjmp	.+2      	; 0x5e0 <get_joy_direction+0x68>
		}
		else if (rel_position.y_pos>=JOY_NEUTRAL){
			y_dir=UP;
		}
		else{
			y_dir=DOWN;
     5de:	84 e0       	ldi	r24, 0x04	; 4
		}
		return y_dir;
     5e0:	90 e0       	ldi	r25, 0x00	; 0
	}
	
}
     5e2:	08 95       	ret

000005e4 <read_MCP2515>:
	SPI_init();
	reset_MCP2515();	
}


char read_MCP2515(char read_address){
     5e4:	cf 93       	push	r28
     5e6:	c8 2f       	mov	r28, r24
	spi_chipselect_deactivate();
     5e8:	0e 94 26 07 	call	0xe4c	; 0xe4c <spi_chipselect_deactivate>
	send_SPI(0x03);	//'read' instruction. 
     5ec:	83 e0       	ldi	r24, 0x03	; 3
     5ee:	0e 94 19 07 	call	0xe32	; 0xe32 <send_SPI>
	send_SPI(read_address);
     5f2:	8c 2f       	mov	r24, r28
     5f4:	0e 94 19 07 	call	0xe32	; 0xe32 <send_SPI>
	
	char val=read_SPI();
     5f8:	0e 94 1d 07 	call	0xe3a	; 0xe3a <read_SPI>
     5fc:	c8 2f       	mov	r28, r24
	spi_chipselect_activate();
     5fe:	0e 94 24 07 	call	0xe48	; 0xe48 <spi_chipselect_activate>
	return val;
	//PORTB |=(1<<SSn);
}
     602:	8c 2f       	mov	r24, r28
     604:	cf 91       	pop	r28
     606:	08 95       	ret

00000608 <write_MCP2515>:


void write_MCP2515(char write_address, char write_data){
     608:	cf 93       	push	r28
     60a:	df 93       	push	r29
     60c:	d8 2f       	mov	r29, r24
     60e:	c6 2f       	mov	r28, r22
	spi_chipselect_deactivate();
     610:	0e 94 26 07 	call	0xe4c	; 0xe4c <spi_chipselect_deactivate>
	send_SPI(0x02);	//'write byte' instruction.
     614:	82 e0       	ldi	r24, 0x02	; 2
     616:	0e 94 19 07 	call	0xe32	; 0xe32 <send_SPI>
	send_SPI(write_address);
     61a:	8d 2f       	mov	r24, r29
     61c:	0e 94 19 07 	call	0xe32	; 0xe32 <send_SPI>
	send_SPI(write_data);
     620:	8c 2f       	mov	r24, r28
     622:	0e 94 19 07 	call	0xe32	; 0xe32 <send_SPI>
	spi_chipselect_activate();
     626:	0e 94 24 07 	call	0xe48	; 0xe48 <spi_chipselect_activate>
	
}
     62a:	df 91       	pop	r29
     62c:	cf 91       	pop	r28
     62e:	08 95       	ret

00000630 <request_to_send_MCP2515>:

void request_to_send_MCP2515(char RTS_in){
     630:	cf 93       	push	r28
     632:	c8 2f       	mov	r28, r24
	spi_chipselect_deactivate();
     634:	0e 94 26 07 	call	0xe4c	; 0xe4c <spi_chipselect_deactivate>
	RTS_in = RTS_in % 8;		//Ensures no more than 3 bits proceed.
     638:	8c 2f       	mov	r24, r28
     63a:	87 70       	andi	r24, 0x07	; 7
	send_SPI(0x80 + RTS_in);
     63c:	80 58       	subi	r24, 0x80	; 128
     63e:	0e 94 19 07 	call	0xe32	; 0xe32 <send_SPI>

	spi_chipselect_activate();
     642:	0e 94 24 07 	call	0xe48	; 0xe48 <spi_chipselect_activate>
}
     646:	cf 91       	pop	r28
     648:	08 95       	ret

0000064a <bit_modify_MCP2515>:
		return repeat;
	}*/
	return out;
}

void bit_modify_MCP2515(char address, char mask_byte, char data){
     64a:	1f 93       	push	r17
     64c:	cf 93       	push	r28
     64e:	df 93       	push	r29
     650:	18 2f       	mov	r17, r24
     652:	d6 2f       	mov	r29, r22
     654:	c4 2f       	mov	r28, r20
	spi_chipselect_deactivate();
     656:	0e 94 26 07 	call	0xe4c	; 0xe4c <spi_chipselect_deactivate>
	send_SPI(0x05);	//'bit modify' instruction.
     65a:	85 e0       	ldi	r24, 0x05	; 5
     65c:	0e 94 19 07 	call	0xe32	; 0xe32 <send_SPI>
	send_SPI(address);
     660:	81 2f       	mov	r24, r17
     662:	0e 94 19 07 	call	0xe32	; 0xe32 <send_SPI>
	send_SPI(mask_byte);
     666:	8d 2f       	mov	r24, r29
     668:	0e 94 19 07 	call	0xe32	; 0xe32 <send_SPI>
	send_SPI(data);
     66c:	8c 2f       	mov	r24, r28
     66e:	0e 94 19 07 	call	0xe32	; 0xe32 <send_SPI>
	spi_chipselect_activate();
     672:	0e 94 24 07 	call	0xe48	; 0xe48 <spi_chipselect_activate>
}
     676:	df 91       	pop	r29
     678:	cf 91       	pop	r28
     67a:	1f 91       	pop	r17
     67c:	08 95       	ret

0000067e <reset_MCP2515>:

void reset_MCP2515(){
	spi_chipselect_deactivate();
     67e:	0e 94 26 07 	call	0xe4c	; 0xe4c <spi_chipselect_deactivate>
	send_SPI(0xC0);	//'reset' instruction.
     682:	80 ec       	ldi	r24, 0xC0	; 192
     684:	0e 94 19 07 	call	0xe32	; 0xe32 <send_SPI>
	spi_chipselect_activate();
     688:	0e 94 24 07 	call	0xe48	; 0xe48 <spi_chipselect_activate>
     68c:	08 95       	ret

0000068e <MCP2515_init>:
#include "../../CAN MCP2515 header files/MCP2515.h"



void MCP2515_init(){
	SPI_init();
     68e:	0e 94 10 07 	call	0xe20	; 0xe20 <SPI_init>
	reset_MCP2515();	
     692:	0e 94 3f 03 	call	0x67e	; 0x67e <reset_MCP2515>
     696:	08 95       	ret

00000698 <memory_init>:
#include <avr/io.h>



void memory_init(void){
	MCUCR|=(1<<SRE);
     698:	85 b7       	in	r24, 0x35	; 53
     69a:	80 68       	ori	r24, 0x80	; 128
     69c:	85 bf       	out	0x35, r24	; 53
	SFIOR|=(1<<XMM2);
     69e:	80 b7       	in	r24, 0x30	; 48
     6a0:	80 62       	ori	r24, 0x20	; 32
     6a2:	80 bf       	out	0x30, r24	; 48
     6a4:	08 95       	ret

000006a6 <menu_init>:
uint8_t arrow_page;



void menu_init(){
	OLED_init();
     6a6:	0e 94 e3 05 	call	0xbc6	; 0xbc6 <OLED_init>
	
	root_node.name = "        > Main menu < \n";
     6aa:	86 e1       	ldi	r24, 0x16	; 22
     6ac:	91 e0       	ldi	r25, 0x01	; 1
     6ae:	90 93 31 04 	sts	0x0431, r25
     6b2:	80 93 30 04 	sts	0x0430, r24
	root_node.parent = &root_node;
     6b6:	e0 e2       	ldi	r30, 0x20	; 32
     6b8:	f4 e0       	ldi	r31, 0x04	; 4
     6ba:	f1 83       	std	Z+1, r31	; 0x01
     6bc:	e0 83       	st	Z, r30
     6be:	e2 e2       	ldi	r30, 0x22	; 34
     6c0:	f4 e0       	ldi	r31, 0x04	; 4
     6c2:	80 e3       	ldi	r24, 0x30	; 48
     6c4:	94 e0       	ldi	r25, 0x04	; 4
	for (int i=0; i<7;i++){ root_node.children[i] = NULL; }
     6c6:	11 92       	st	Z+, r1
     6c8:	11 92       	st	Z+, r1
     6ca:	e8 17       	cp	r30, r24
     6cc:	f9 07       	cpc	r31, r25
     6ce:	d9 f7       	brne	.-10     	; 0x6c6 <menu_init+0x20>
	root_node.children[0] = &ingame_node;
     6d0:	8c e0       	ldi	r24, 0x0C	; 12
     6d2:	94 e0       	ldi	r25, 0x04	; 4
     6d4:	90 93 23 04 	sts	0x0423, r25
     6d8:	80 93 22 04 	sts	0x0422, r24
	root_node.children[1] = &highscore_node;
     6dc:	e0 e6       	ldi	r30, 0x60	; 96
     6de:	f4 e0       	ldi	r31, 0x04	; 4
     6e0:	f0 93 25 04 	sts	0x0425, r31
     6e4:	e0 93 24 04 	sts	0x0424, r30
	root_node.children[2] = &settings_node;
     6e8:	84 ee       	ldi	r24, 0xE4	; 228
     6ea:	93 e0       	ldi	r25, 0x03	; 3
     6ec:	90 93 27 04 	sts	0x0427, r25
     6f0:	80 93 26 04 	sts	0x0426, r24
	root_node.children[3] = &draw_node;
     6f4:	84 e3       	ldi	r24, 0x34	; 52
     6f6:	94 e0       	ldi	r25, 0x04	; 4
     6f8:	90 93 29 04 	sts	0x0429, r25
     6fc:	80 93 28 04 	sts	0x0428, r24
	root_node.children[4] = &info_node;
     700:	84 e7       	ldi	r24, 0x74	; 116
     702:	94 e0       	ldi	r25, 0x04	; 4
     704:	90 93 2b 04 	sts	0x042B, r25
     708:	80 93 2a 04 	sts	0x042A, r24
	root_node.children[5] = &howto_node;
     70c:	8a e8       	ldi	r24, 0x8A	; 138
     70e:	94 e0       	ldi	r25, 0x04	; 4
     710:	90 93 2d 04 	sts	0x042D, r25
     714:	80 93 2c 04 	sts	0x042C, r24
	root_node.content_string = "Play Ping-Pong game \nHighscores \nSettings \nDraw a doodle \nInfo \n";
     718:	8e e2       	ldi	r24, 0x2E	; 46
     71a:	91 e0       	ldi	r25, 0x01	; 1
     71c:	90 93 33 04 	sts	0x0433, r25
     720:	80 93 32 04 	sts	0x0432, r24

	highscore_node.name = "Back     > Highscore < \n";
     724:	8f e6       	ldi	r24, 0x6F	; 111
     726:	91 e0       	ldi	r25, 0x01	; 1
     728:	90 93 71 04 	sts	0x0471, r25
     72c:	80 93 70 04 	sts	0x0470, r24
	highscore_node.parent = &root_node;
     730:	80 e2       	ldi	r24, 0x20	; 32
     732:	94 e0       	ldi	r25, 0x04	; 4
     734:	91 83       	std	Z+1, r25	; 0x01
     736:	80 83       	st	Z, r24
     738:	e2 e6       	ldi	r30, 0x62	; 98
     73a:	f4 e0       	ldi	r31, 0x04	; 4
     73c:	80 e7       	ldi	r24, 0x70	; 112
     73e:	94 e0       	ldi	r25, 0x04	; 4
	for (int i=0; i<7;i++){ highscore_node.children[i] = NULL; }
     740:	11 92       	st	Z+, r1
     742:	11 92       	st	Z+, r1
     744:	e8 17       	cp	r30, r24
     746:	f9 07       	cpc	r31, r25
     748:	d9 f7       	brne	.-10     	; 0x740 <menu_init+0x9a>
	highscore_node.content_string = "Player1 score. \nPlayer2 score. \n";
     74a:	88 e8       	ldi	r24, 0x88	; 136
     74c:	91 e0       	ldi	r25, 0x01	; 1
     74e:	90 93 73 04 	sts	0x0473, r25
     752:	80 93 72 04 	sts	0x0472, r24

	settings_node.name = "Back     > Settings < \n";
     756:	89 ea       	ldi	r24, 0xA9	; 169
     758:	91 e0       	ldi	r25, 0x01	; 1
     75a:	90 93 f5 03 	sts	0x03F5, r25
     75e:	80 93 f4 03 	sts	0x03F4, r24
	settings_node.parent = &root_node;
     762:	80 e2       	ldi	r24, 0x20	; 32
     764:	94 e0       	ldi	r25, 0x04	; 4
     766:	90 93 e5 03 	sts	0x03E5, r25
     76a:	80 93 e4 03 	sts	0x03E4, r24
     76e:	e6 ee       	ldi	r30, 0xE6	; 230
     770:	f3 e0       	ldi	r31, 0x03	; 3
     772:	84 ef       	ldi	r24, 0xF4	; 244
     774:	93 e0       	ldi	r25, 0x03	; 3
	for (int i=0; i<7;i++){ settings_node.children[i] = NULL; }
     776:	11 92       	st	Z+, r1
     778:	11 92       	st	Z+, r1
     77a:	e8 17       	cp	r30, r24
     77c:	f9 07       	cpc	r31, r25
     77e:	d9 f7       	brne	.-10     	; 0x776 <menu_init+0xd0>
	settings_node.content_string = "Clear highscore \nCalibrate joystick \nTest SRAM \nCalibrate motor encoder \n";
     780:	81 ec       	ldi	r24, 0xC1	; 193
     782:	91 e0       	ldi	r25, 0x01	; 1
     784:	90 93 f7 03 	sts	0x03F7, r25
     788:	80 93 f6 03 	sts	0x03F6, r24
	
	draw_node.name = "         > Drawing board < \n";
     78c:	8b e0       	ldi	r24, 0x0B	; 11
     78e:	92 e0       	ldi	r25, 0x02	; 2
     790:	90 93 45 04 	sts	0x0445, r25
     794:	80 93 44 04 	sts	0x0444, r24
	draw_node.parent = &root_node;
     798:	80 e2       	ldi	r24, 0x20	; 32
     79a:	94 e0       	ldi	r25, 0x04	; 4
     79c:	90 93 35 04 	sts	0x0435, r25
     7a0:	80 93 34 04 	sts	0x0434, r24
     7a4:	e6 e3       	ldi	r30, 0x36	; 54
     7a6:	f4 e0       	ldi	r31, 0x04	; 4
     7a8:	84 e4       	ldi	r24, 0x44	; 68
     7aa:	94 e0       	ldi	r25, 0x04	; 4
	for (int i=0; i<7;i++){ draw_node.children[i] = NULL; }
     7ac:	11 92       	st	Z+, r1
     7ae:	11 92       	st	Z+, r1
     7b0:	e8 17       	cp	r30, r24
     7b2:	f9 07       	cpc	r31, r25
     7b4:	d9 f7       	brne	.-10     	; 0x7ac <menu_init+0x106>
	//draw_node.content_string = draw_OLED();
	
	calibrate_joy_node.name = "Back      > Calibrate joystick < \n";
     7b6:	88 e2       	ldi	r24, 0x28	; 40
     7b8:	92 e0       	ldi	r25, 0x02	; 2
     7ba:	90 93 59 04 	sts	0x0459, r25
     7be:	80 93 58 04 	sts	0x0458, r24
	calibrate_joy_node.parent = &settings_node;
     7c2:	84 ee       	ldi	r24, 0xE4	; 228
     7c4:	93 e0       	ldi	r25, 0x03	; 3
     7c6:	90 93 49 04 	sts	0x0449, r25
     7ca:	80 93 48 04 	sts	0x0448, r24
     7ce:	ea e4       	ldi	r30, 0x4A	; 74
     7d0:	f4 e0       	ldi	r31, 0x04	; 4
     7d2:	88 e5       	ldi	r24, 0x58	; 88
     7d4:	94 e0       	ldi	r25, 0x04	; 4
	for (int i=0; i<7;i++){ calibrate_joy_node.children[i] = NULL; }
     7d6:	11 92       	st	Z+, r1
     7d8:	11 92       	st	Z+, r1
     7da:	e8 17       	cp	r30, r24
     7dc:	f9 07       	cpc	r31, r25
     7de:	d9 f7       	brne	.-10     	; 0x7d6 <menu_init+0x130>
	calibrate_joy_node.content_string = "Reset axis offset \nIncrease neutral zone \nDecrease neutral zone \n";
     7e0:	8b e4       	ldi	r24, 0x4B	; 75
     7e2:	92 e0       	ldi	r25, 0x02	; 2
     7e4:	90 93 5b 04 	sts	0x045B, r25
     7e8:	80 93 5a 04 	sts	0x045A, r24
	
	ingame_node.name = "         > In-game < \n";
     7ec:	8d e8       	ldi	r24, 0x8D	; 141
     7ee:	92 e0       	ldi	r25, 0x02	; 2
     7f0:	90 93 1d 04 	sts	0x041D, r25
     7f4:	80 93 1c 04 	sts	0x041C, r24
	ingame_node.parent = &root_node;
     7f8:	80 e2       	ldi	r24, 0x20	; 32
     7fa:	94 e0       	ldi	r25, 0x04	; 4
     7fc:	90 93 0d 04 	sts	0x040D, r25
     800:	80 93 0c 04 	sts	0x040C, r24
     804:	ee e0       	ldi	r30, 0x0E	; 14
     806:	f4 e0       	ldi	r31, 0x04	; 4
     808:	8c e1       	ldi	r24, 0x1C	; 28
     80a:	94 e0       	ldi	r25, 0x04	; 4
	for (int i=0; i<7;i++){ ingame_node.children[i] = NULL; }
     80c:	11 92       	st	Z+, r1
     80e:	11 92       	st	Z+, r1
     810:	e8 17       	cp	r30, r24
     812:	f9 07       	cpc	r31, r25
     814:	d9 f7       	brne	.-10     	; 0x80c <menu_init+0x166>
	ingame_node.content_string = "\nCurrent score: \n";
     816:	84 ea       	ldi	r24, 0xA4	; 164
     818:	92 e0       	ldi	r25, 0x02	; 2
     81a:	90 93 1f 04 	sts	0x041F, r25
     81e:	80 93 1e 04 	sts	0x041E, r24
	
	howto_node.name = "Back     > How to play < \n";
     822:	86 eb       	ldi	r24, 0xB6	; 182
     824:	92 e0       	ldi	r25, 0x02	; 2
     826:	90 93 9b 04 	sts	0x049B, r25
     82a:	80 93 9a 04 	sts	0x049A, r24
	howto_node.parent = &root_node;
     82e:	80 e2       	ldi	r24, 0x20	; 32
     830:	94 e0       	ldi	r25, 0x04	; 4
     832:	90 93 8b 04 	sts	0x048B, r25
     836:	80 93 8a 04 	sts	0x048A, r24
     83a:	ec e8       	ldi	r30, 0x8C	; 140
     83c:	f4 e0       	ldi	r31, 0x04	; 4
     83e:	8a e9       	ldi	r24, 0x9A	; 154
     840:	94 e0       	ldi	r25, 0x04	; 4
	for (int i=0; i<7;i++){ howto_node.children[i] = NULL; }
     842:	11 92       	st	Z+, r1
     844:	11 92       	st	Z+, r1
     846:	e8 17       	cp	r30, r24
     848:	f9 07       	cpc	r31, r25
     84a:	d9 f7       	brne	.-10     	; 0x842 <menu_init+0x19c>
	howto_node.content_string = "Use joystick to control motor. \nUse left button to push the ball. \nUse left slider to control servo. \n\n";
     84c:	81 ed       	ldi	r24, 0xD1	; 209
     84e:	92 e0       	ldi	r25, 0x02	; 2
     850:	90 93 9d 04 	sts	0x049D, r25
     854:	80 93 9c 04 	sts	0x049C, r24
	
	info_node.name = "Back     > Info < \n";
     858:	89 e3       	ldi	r24, 0x39	; 57
     85a:	93 e0       	ldi	r25, 0x03	; 3
     85c:	90 93 85 04 	sts	0x0485, r25
     860:	80 93 84 04 	sts	0x0484, r24
	info_node.parent = &root_node;
     864:	80 e2       	ldi	r24, 0x20	; 32
     866:	94 e0       	ldi	r25, 0x04	; 4
     868:	90 93 75 04 	sts	0x0475, r25
     86c:	80 93 74 04 	sts	0x0474, r24
     870:	e6 e7       	ldi	r30, 0x76	; 118
     872:	f4 e0       	ldi	r31, 0x04	; 4
     874:	84 e8       	ldi	r24, 0x84	; 132
     876:	94 e0       	ldi	r25, 0x04	; 4
	for (int i=0; i<7;i++){ info_node.children[i] = NULL; }
     878:	11 92       	st	Z+, r1
     87a:	11 92       	st	Z+, r1
     87c:	e8 17       	cp	r30, r24
     87e:	f9 07       	cpc	r31, r25
     880:	d9 f7       	brne	.-10     	; 0x878 <menu_init+0x1d2>
	info_node.content_string = "*Use joystick up/down to\n navigate. \n*Use left button to select. \n*Use right button to return\n to previous menu at any\n time. \n";
     882:	8d e4       	ldi	r24, 0x4D	; 77
     884:	93 e0       	ldi	r25, 0x03	; 3
     886:	90 93 87 04 	sts	0x0487, r25
     88a:	80 93 86 04 	sts	0x0486, r24
	
	
	current_node = &root_node; 
     88e:	80 e2       	ldi	r24, 0x20	; 32
     890:	94 e0       	ldi	r25, 0x04	; 4
     892:	90 93 89 04 	sts	0x0489, r25
     896:	80 93 88 04 	sts	0x0488, r24
	//current_node =&ingame_node;////&playgame_node;//&info_node;
	arrow_page = 0;
     89a:	10 92 a9 04 	sts	0x04A9, r1
     89e:	08 95       	ret

000008a0 <menu_arrow>:
}


void menu_arrow(){
	clear_arrow_space();
     8a0:	0e 94 a1 05 	call	0xb42	; 0xb42 <clear_arrow_space>
	joy_relative_pos();
     8a4:	0e 94 80 02 	call	0x500	; 0x500 <joy_relative_pos>
	int direction = get_joy_direction();
     8a8:	0e 94 bc 02 	call	0x578	; 0x578 <get_joy_direction>
	if (direction == 0){
     8ac:	00 97       	sbiw	r24, 0x00	; 0
     8ae:	e1 f0       	breq	.+56     	; 0x8e8 <menu_arrow+0x48>
	} else if (direction == 3){
     8b0:	83 30       	cpi	r24, 0x03	; 3
     8b2:	91 05       	cpc	r25, r1
     8b4:	79 f4       	brne	.+30     	; 0x8d4 <menu_arrow+0x34>
		arrow_page = (arrow_page -1) % DISPLAY_PAGES;
     8b6:	80 91 a9 04 	lds	r24, 0x04A9
     8ba:	90 e0       	ldi	r25, 0x00	; 0
     8bc:	01 97       	sbiw	r24, 0x01	; 1
     8be:	87 70       	andi	r24, 0x07	; 7
     8c0:	90 78       	andi	r25, 0x80	; 128
     8c2:	99 23       	and	r25, r25
     8c4:	24 f4       	brge	.+8      	; 0x8ce <menu_arrow+0x2e>
     8c6:	01 97       	sbiw	r24, 0x01	; 1
     8c8:	88 6f       	ori	r24, 0xF8	; 248
     8ca:	9f 6f       	ori	r25, 0xFF	; 255
     8cc:	01 96       	adiw	r24, 0x01	; 1
     8ce:	80 93 a9 04 	sts	0x04A9, r24
     8d2:	0a c0       	rjmp	.+20     	; 0x8e8 <menu_arrow+0x48>
	} else if (direction == 4){
     8d4:	04 97       	sbiw	r24, 0x04	; 4
     8d6:	41 f4       	brne	.+16     	; 0x8e8 <menu_arrow+0x48>
		arrow_page = (arrow_page +1) % DISPLAY_PAGES;
     8d8:	80 91 a9 04 	lds	r24, 0x04A9
     8dc:	90 e0       	ldi	r25, 0x00	; 0
     8de:	01 96       	adiw	r24, 0x01	; 1
     8e0:	87 70       	andi	r24, 0x07	; 7
     8e2:	90 78       	andi	r25, 0x80	; 128
     8e4:	80 93 a9 04 	sts	0x04A9, r24
	}
	OLED_print_arrow(arrow_page);
     8e8:	80 91 a9 04 	lds	r24, 0x04A9
     8ec:	0e 94 a0 06 	call	0xd40	; 0xd40 <OLED_print_arrow>
     8f0:	08 95       	ret

000008f2 <menu_print>:
	menu_print();
}

void menu_print(){
	//print_to_OLED(current_node->children[0]->content_string, 2);
	OLED_reset();
     8f2:	0e 94 d4 05 	call	0xba8	; 0xba8 <OLED_reset>
	print_to_OLED(current_node->name, 2);
     8f6:	e0 91 88 04 	lds	r30, 0x0488
     8fa:	f0 91 89 04 	lds	r31, 0x0489
     8fe:	62 e0       	ldi	r22, 0x02	; 2
     900:	80 89       	ldd	r24, Z+16	; 0x10
     902:	91 89       	ldd	r25, Z+17	; 0x11
     904:	0e 94 15 06 	call	0xc2a	; 0xc2a <print_to_OLED>
	print_to_OLED(current_node->content_string, 2);
     908:	e0 91 88 04 	lds	r30, 0x0488
     90c:	f0 91 89 04 	lds	r31, 0x0489
     910:	62 e0       	ldi	r22, 0x02	; 2
     912:	82 89       	ldd	r24, Z+18	; 0x12
     914:	93 89       	ldd	r25, Z+19	; 0x13
     916:	0e 94 15 06 	call	0xc2a	; 0xc2a <print_to_OLED>
	if ((current_node != &ingame_node) | (current_node != &draw_node)){
     91a:	80 91 88 04 	lds	r24, 0x0488
     91e:	90 91 89 04 	lds	r25, 0x0489
     922:	21 e0       	ldi	r18, 0x01	; 1
     924:	34 e0       	ldi	r19, 0x04	; 4
     926:	84 33       	cpi	r24, 0x34	; 52
     928:	93 07       	cpc	r25, r19
     92a:	09 f4       	brne	.+2      	; 0x92e <menu_print+0x3c>
     92c:	20 e0       	ldi	r18, 0x00	; 0
     92e:	21 11       	cpse	r18, r1
     930:	07 c0       	rjmp	.+14     	; 0x940 <menu_print+0x4e>
     932:	21 e0       	ldi	r18, 0x01	; 1
     934:	8c 50       	subi	r24, 0x0C	; 12
     936:	94 40       	sbci	r25, 0x04	; 4
     938:	09 f4       	brne	.+2      	; 0x93c <menu_print+0x4a>
     93a:	20 e0       	ldi	r18, 0x00	; 0
     93c:	22 23       	and	r18, r18
     93e:	21 f0       	breq	.+8      	; 0x948 <menu_print+0x56>
		OLED_print_arrow(arrow_page);
     940:	80 91 a9 04 	lds	r24, 0x04A9
     944:	0e 94 a0 06 	call	0xd40	; 0xd40 <OLED_print_arrow>
     948:	08 95       	ret

0000094a <__vector_1>:
	}
	OLED_print_arrow(arrow_page);
}

/* Left slider button, INT0_vect, pin PD2. Right slider button, INT1_vect, pin PD3.*/
ISR(INT0_vect){//, INT1_vect){
     94a:	1f 92       	push	r1
     94c:	0f 92       	push	r0
     94e:	0f b6       	in	r0, 0x3f	; 63
     950:	0f 92       	push	r0
     952:	11 24       	eor	r1, r1
     954:	8f 92       	push	r8
     956:	9f 92       	push	r9
     958:	af 92       	push	r10
     95a:	bf 92       	push	r11
     95c:	cf 92       	push	r12
     95e:	df 92       	push	r13
     960:	ef 92       	push	r14
     962:	ff 92       	push	r15
     964:	0f 93       	push	r16
     966:	1f 93       	push	r17
     968:	2f 93       	push	r18
     96a:	3f 93       	push	r19
     96c:	4f 93       	push	r20
     96e:	5f 93       	push	r21
     970:	6f 93       	push	r22
     972:	7f 93       	push	r23
     974:	8f 93       	push	r24
     976:	9f 93       	push	r25
     978:	af 93       	push	r26
     97a:	bf 93       	push	r27
     97c:	ef 93       	push	r30
     97e:	ff 93       	push	r31
     980:	cf 93       	push	r28
     982:	df 93       	push	r29
     984:	cd b7       	in	r28, 0x3d	; 61
     986:	de b7       	in	r29, 0x3e	; 62
     988:	62 97       	sbiw	r28, 0x12	; 18
     98a:	de bf       	out	0x3e, r29	; 62
     98c:	cd bf       	out	0x3d, r28	; 61
	printf("Button interrupt.\n");
     98e:	8d ec       	ldi	r24, 0xCD	; 205
     990:	93 e0       	ldi	r25, 0x03	; 3
     992:	0e 94 b0 07 	call	0xf60	; 0xf60 <puts>
	
	if (current_node == &ingame_node){
     996:	e0 91 88 04 	lds	r30, 0x0488
     99a:	f0 91 89 04 	lds	r31, 0x0489
     99e:	84 e0       	ldi	r24, 0x04	; 4
     9a0:	ec 30       	cpi	r30, 0x0C	; 12
     9a2:	f8 07       	cpc	r31, r24
     9a4:	d1 f4       	brne	.+52     	; 0x9da <__vector_1+0x90>
		CAN_struct solenoide_push;
		solenoide_push.ID= SOLENOIDE_PUSH_ID;
		solenoide_push.data[0]=0;
     9a6:	1c 82       	std	Y+4, r1	; 0x04
     9a8:	1b 82       	std	Y+3, r1	; 0x03
		solenoide_push.length=1;
		// printf("Sending following message :\n ID: %i \n data: %i\n length %i",solenoide_push.ID,solenoide_push.data[0],solenoide_push.length);
		send_CAN_message(solenoide_push);
     9aa:	68 94       	set
     9ac:	88 24       	eor	r8, r8
     9ae:	81 f8       	bld	r8, 1
     9b0:	99 24       	eor	r9, r9
     9b2:	93 94       	inc	r9
     9b4:	a1 2c       	mov	r10, r1
     9b6:	bc 80       	ldd	r11, Y+4	; 0x04
     9b8:	cd 80       	ldd	r12, Y+5	; 0x05
     9ba:	de 80       	ldd	r13, Y+6	; 0x06
     9bc:	ef 80       	ldd	r14, Y+7	; 0x07
     9be:	f8 84       	ldd	r15, Y+8	; 0x08
     9c0:	09 85       	ldd	r16, Y+9	; 0x09
     9c2:	1a 85       	ldd	r17, Y+10	; 0x0a
     9c4:	2b 85       	ldd	r18, Y+11	; 0x0b
     9c6:	3c 85       	ldd	r19, Y+12	; 0x0c
     9c8:	4d 85       	ldd	r20, Y+13	; 0x0d
     9ca:	5e 85       	ldd	r21, Y+14	; 0x0e
     9cc:	6f 85       	ldd	r22, Y+15	; 0x0f
     9ce:	78 89       	ldd	r23, Y+16	; 0x10
     9d0:	89 89       	ldd	r24, Y+17	; 0x11
     9d2:	9a 89       	ldd	r25, Y+18	; 0x12
     9d4:	0e 94 bd 01 	call	0x37a	; 0x37a <send_CAN_message>
     9d8:	23 c0       	rjmp	.+70     	; 0xa20 <__vector_1+0xd6>
		
		
		//push_solenoid();
	}
	else if (current_node == &draw_node){
     9da:	84 e0       	ldi	r24, 0x04	; 4
     9dc:	e4 33       	cpi	r30, 0x34	; 52
     9de:	f8 07       	cpc	r31, r24
     9e0:	19 f4       	brne	.+6      	; 0x9e8 <__vector_1+0x9e>
		OLED_reset();	
     9e2:	0e 94 d4 05 	call	0xba8	; 0xba8 <OLED_reset>
     9e6:	1c c0       	rjmp	.+56     	; 0xa20 <__vector_1+0xd6>
	}
	else{	//This means we are in normal menu mode.
		if (arrow_page <= 0){
     9e8:	80 91 a9 04 	lds	r24, 0x04A9
     9ec:	81 11       	cpse	r24, r1
     9ee:	07 c0       	rjmp	.+14     	; 0x9fe <__vector_1+0xb4>
			current_node = current_node->parent;
     9f0:	80 81       	ld	r24, Z
     9f2:	91 81       	ldd	r25, Z+1	; 0x01
     9f4:	90 93 89 04 	sts	0x0489, r25
     9f8:	80 93 88 04 	sts	0x0488, r24
     9fc:	0d c0       	rjmp	.+26     	; 0xa18 <__vector_1+0xce>
		} else if (!(current_node->children[arrow_page - 1] == NULL)){
     9fe:	90 e0       	ldi	r25, 0x00	; 0
     a00:	88 0f       	add	r24, r24
     a02:	99 1f       	adc	r25, r25
     a04:	e8 0f       	add	r30, r24
     a06:	f9 1f       	adc	r31, r25
     a08:	80 81       	ld	r24, Z
     a0a:	91 81       	ldd	r25, Z+1	; 0x01
     a0c:	00 97       	sbiw	r24, 0x00	; 0
     a0e:	21 f0       	breq	.+8      	; 0xa18 <__vector_1+0xce>
			current_node = current_node->children[arrow_page -1];
     a10:	90 93 89 04 	sts	0x0489, r25
     a14:	80 93 88 04 	sts	0x0488, r24
		}
		arrow_page = 0;
     a18:	10 92 a9 04 	sts	0x04A9, r1
		menu_print();
     a1c:	0e 94 79 04 	call	0x8f2	; 0x8f2 <menu_print>
	}
}
     a20:	62 96       	adiw	r28, 0x12	; 18
     a22:	0f b6       	in	r0, 0x3f	; 63
     a24:	f8 94       	cli
     a26:	de bf       	out	0x3e, r29	; 62
     a28:	0f be       	out	0x3f, r0	; 63
     a2a:	cd bf       	out	0x3d, r28	; 61
     a2c:	df 91       	pop	r29
     a2e:	cf 91       	pop	r28
     a30:	ff 91       	pop	r31
     a32:	ef 91       	pop	r30
     a34:	bf 91       	pop	r27
     a36:	af 91       	pop	r26
     a38:	9f 91       	pop	r25
     a3a:	8f 91       	pop	r24
     a3c:	7f 91       	pop	r23
     a3e:	6f 91       	pop	r22
     a40:	5f 91       	pop	r21
     a42:	4f 91       	pop	r20
     a44:	3f 91       	pop	r19
     a46:	2f 91       	pop	r18
     a48:	1f 91       	pop	r17
     a4a:	0f 91       	pop	r16
     a4c:	ff 90       	pop	r15
     a4e:	ef 90       	pop	r14
     a50:	df 90       	pop	r13
     a52:	cf 90       	pop	r12
     a54:	bf 90       	pop	r11
     a56:	af 90       	pop	r10
     a58:	9f 90       	pop	r9
     a5a:	8f 90       	pop	r8
     a5c:	0f 90       	pop	r0
     a5e:	0f be       	out	0x3f, r0	; 63
     a60:	0f 90       	pop	r0
     a62:	1f 90       	pop	r1
     a64:	18 95       	reti

00000a66 <__vector_2>:

/*Used for going backwards/upwards in menu*/
ISR(INT1_vect){
     a66:	1f 92       	push	r1
     a68:	0f 92       	push	r0
     a6a:	0f b6       	in	r0, 0x3f	; 63
     a6c:	0f 92       	push	r0
     a6e:	11 24       	eor	r1, r1
     a70:	2f 93       	push	r18
     a72:	3f 93       	push	r19
     a74:	4f 93       	push	r20
     a76:	5f 93       	push	r21
     a78:	6f 93       	push	r22
     a7a:	7f 93       	push	r23
     a7c:	8f 93       	push	r24
     a7e:	9f 93       	push	r25
     a80:	af 93       	push	r26
     a82:	bf 93       	push	r27
     a84:	ef 93       	push	r30
     a86:	ff 93       	push	r31
	printf("Button interrupt.\n");
     a88:	8d ec       	ldi	r24, 0xCD	; 205
     a8a:	93 e0       	ldi	r25, 0x03	; 3
     a8c:	0e 94 b0 07 	call	0xf60	; 0xf60 <puts>
	current_node = current_node->parent;
     a90:	e0 91 88 04 	lds	r30, 0x0488
     a94:	f0 91 89 04 	lds	r31, 0x0489
     a98:	80 81       	ld	r24, Z
     a9a:	91 81       	ldd	r25, Z+1	; 0x01
     a9c:	90 93 89 04 	sts	0x0489, r25
     aa0:	80 93 88 04 	sts	0x0488, r24
	menu_print();
     aa4:	0e 94 79 04 	call	0x8f2	; 0x8f2 <menu_print>
}
     aa8:	ff 91       	pop	r31
     aaa:	ef 91       	pop	r30
     aac:	bf 91       	pop	r27
     aae:	af 91       	pop	r26
     ab0:	9f 91       	pop	r25
     ab2:	8f 91       	pop	r24
     ab4:	7f 91       	pop	r23
     ab6:	6f 91       	pop	r22
     ab8:	5f 91       	pop	r21
     aba:	4f 91       	pop	r20
     abc:	3f 91       	pop	r19
     abe:	2f 91       	pop	r18
     ac0:	0f 90       	pop	r0
     ac2:	0f be       	out	0x3f, r0	; 63
     ac4:	0f 90       	pop	r0
     ac6:	1f 90       	pop	r1
     ac8:	18 95       	reti

00000aca <set_font4x6>:
};



void set_font4x6(){
	font_type.data = font4x6;
     aca:	80 e7       	ldi	r24, 0x70	; 112
     acc:	90 e0       	ldi	r25, 0x00	; 0
     ace:	90 93 a2 04 	sts	0x04A2, r25
     ad2:	80 93 a1 04 	sts	0x04A1, r24
	font_type.width = 4;
     ad6:	84 e0       	ldi	r24, 0x04	; 4
     ad8:	80 93 9e 04 	sts	0x049E, r24
	font_type.height = 6;
     adc:	86 e0       	ldi	r24, 0x06	; 6
     ade:	80 93 9f 04 	sts	0x049F, r24
	font_type.ascii_offset = 32;
     ae2:	80 e2       	ldi	r24, 0x20	; 32
     ae4:	80 93 a0 04 	sts	0x04A0, r24
     ae8:	08 95       	ret

00000aea <goto_OLED_page>:
	goto_OLED_char_column(0);
	return;
}

void goto_OLED_page(uint8_t page){
	current_page = page % DISPLAY_PAGES;
     aea:	87 70       	andi	r24, 0x07	; 7
     aec:	80 93 e2 03 	sts	0x03E2, r24
	write_OLED_cmd(0xB0 + current_page);
     af0:	80 55       	subi	r24, 0x50	; 80
}


void write_OLED_cmd(uint8_t number){
	volatile char *ext_oled_cs = (char *) 0x1000;
	*ext_oled_cs = number;
     af2:	80 93 00 10 	sts	0x1000, r24
     af6:	08 95       	ret

00000af8 <goto_OLED_char_column>:
	write_OLED_cmd(0xB0 + current_page);
	return;
}

void goto_OLED_char_column(uint8_t column){
	uint8_t c = column * font_type.width;
     af8:	90 91 9e 04 	lds	r25, 0x049E
     afc:	89 9f       	mul	r24, r25
     afe:	90 2d       	mov	r25, r0
     b00:	11 24       	eor	r1, r1
	uint8_t low_bits = c & 0x0f;
     b02:	29 2f       	mov	r18, r25
     b04:	2f 70       	andi	r18, 0x0F	; 15
}


void write_OLED_cmd(uint8_t number){
	volatile char *ext_oled_cs = (char *) 0x1000;
	*ext_oled_cs = number;
     b06:	e0 e0       	ldi	r30, 0x00	; 0
     b08:	f0 e1       	ldi	r31, 0x10	; 16
     b0a:	20 83       	st	Z, r18
void goto_OLED_char_column(uint8_t column){
	uint8_t c = column * font_type.width;
	uint8_t low_bits = c & 0x0f;
	uint8_t high_bits = c & 0xf0;
	write_OLED_cmd(0x00 + low_bits);
	write_OLED_cmd(0x10 + (high_bits >> 4));
     b0c:	92 95       	swap	r25
     b0e:	9f 70       	andi	r25, 0x0F	; 15
     b10:	90 5f       	subi	r25, 0xF0	; 240
}


void write_OLED_cmd(uint8_t number){
	volatile char *ext_oled_cs = (char *) 0x1000;
	*ext_oled_cs = number;
     b12:	90 83       	st	Z, r25
	uint8_t low_bits = c & 0x0f;
	uint8_t high_bits = c & 0xf0;
	write_OLED_cmd(0x00 + low_bits);
	write_OLED_cmd(0x10 + (high_bits >> 4));
	
	current_column = column;
     b14:	80 93 e3 03 	sts	0x03E3, r24
     b18:	08 95       	ret

00000b1a <OLED_home>:
	OLED_home();
	return;
}

void OLED_home(){
	goto_OLED_page(0);
     b1a:	80 e0       	ldi	r24, 0x00	; 0
     b1c:	0e 94 75 05 	call	0xaea	; 0xaea <goto_OLED_page>
	goto_OLED_char_column(0);
     b20:	80 e0       	ldi	r24, 0x00	; 0
     b22:	0e 94 7c 05 	call	0xaf8	; 0xaf8 <goto_OLED_char_column>
     b26:	08 95       	ret

00000b28 <goto_OLED_physical_column>:
	current_column = temp_col;
	return;
}

void goto_OLED_physical_column(uint8_t column){
	uint8_t low_bits = column & 0x0f;
     b28:	98 2f       	mov	r25, r24
     b2a:	9f 70       	andi	r25, 0x0F	; 15
}


void write_OLED_cmd(uint8_t number){
	volatile char *ext_oled_cs = (char *) 0x1000;
	*ext_oled_cs = number;
     b2c:	e0 e0       	ldi	r30, 0x00	; 0
     b2e:	f0 e1       	ldi	r31, 0x10	; 16
     b30:	90 83       	st	Z, r25

void goto_OLED_physical_column(uint8_t column){
	uint8_t low_bits = column & 0x0f;
	uint8_t high_bits = column & 0xf0;
	write_OLED_cmd(0x00 + low_bits);
	write_OLED_cmd(0x10 + (high_bits >> 4));
     b32:	98 2f       	mov	r25, r24
     b34:	92 95       	swap	r25
     b36:	9f 70       	andi	r25, 0x0F	; 15
     b38:	90 5f       	subi	r25, 0xF0	; 240
}


void write_OLED_cmd(uint8_t number){
	volatile char *ext_oled_cs = (char *) 0x1000;
	*ext_oled_cs = number;
     b3a:	90 83       	st	Z, r25
	uint8_t low_bits = column & 0x0f;
	uint8_t high_bits = column & 0xf0;
	write_OLED_cmd(0x00 + low_bits);
	write_OLED_cmd(0x10 + (high_bits >> 4));
	
	current_column = column;
     b3c:	80 93 e3 03 	sts	0x03E3, r24
     b40:	08 95       	ret

00000b42 <clear_arrow_space>:
	
	current_column = column;
	return;
}

void clear_arrow_space(){
     b42:	df 92       	push	r13
     b44:	ef 92       	push	r14
     b46:	ff 92       	push	r15
     b48:	0f 93       	push	r16
     b4a:	1f 93       	push	r17
     b4c:	cf 93       	push	r28
     b4e:	df 93       	push	r29
	int temp_page = current_page;
     b50:	d0 90 e2 03 	lds	r13, 0x03E2
	int temp_col = current_column;
     b54:	e0 90 e3 03 	lds	r14, 0x03E3
	for (uint8_t j = 0; j < DISPLAY_PAGES; j++){
     b58:	00 e0       	ldi	r16, 0x00	; 0
		goto_OLED_page(j);
		for (uint8_t i = 0; i < ARROW_WIDTH; i++){
     b5a:	f1 2c       	mov	r15, r1
	*ext_oled_cs = number;
}

void write_OLED_data(uint8_t number){
	volatile char *ext_oled_dc = (char *) 0x1200;
	*ext_oled_dc = number;
     b5c:	c0 e0       	ldi	r28, 0x00	; 0
     b5e:	d2 e1       	ldi	r29, 0x12	; 18

void clear_arrow_space(){
	int temp_page = current_page;
	int temp_col = current_column;
	for (uint8_t j = 0; j < DISPLAY_PAGES; j++){
		goto_OLED_page(j);
     b60:	80 2f       	mov	r24, r16
     b62:	0e 94 75 05 	call	0xaea	; 0xaea <goto_OLED_page>
		for (uint8_t i = 0; i < ARROW_WIDTH; i++){
     b66:	1f 2d       	mov	r17, r15
			goto_OLED_physical_column(i);
     b68:	81 2f       	mov	r24, r17
     b6a:	0e 94 94 05 	call	0xb28	; 0xb28 <goto_OLED_physical_column>
	*ext_oled_cs = number;
}

void write_OLED_data(uint8_t number){
	volatile char *ext_oled_dc = (char *) 0x1200;
	*ext_oled_dc = number;
     b6e:	18 82       	st	Y, r1
void clear_arrow_space(){
	int temp_page = current_page;
	int temp_col = current_column;
	for (uint8_t j = 0; j < DISPLAY_PAGES; j++){
		goto_OLED_page(j);
		for (uint8_t i = 0; i < ARROW_WIDTH; i++){
     b70:	1f 5f       	subi	r17, 0xFF	; 255
     b72:	18 30       	cpi	r17, 0x08	; 8
     b74:	c9 f7       	brne	.-14     	; 0xb68 <clear_arrow_space+0x26>
}

void clear_arrow_space(){
	int temp_page = current_page;
	int temp_col = current_column;
	for (uint8_t j = 0; j < DISPLAY_PAGES; j++){
     b76:	0f 5f       	subi	r16, 0xFF	; 255
     b78:	08 30       	cpi	r16, 0x08	; 8
     b7a:	91 f7       	brne	.-28     	; 0xb60 <clear_arrow_space+0x1e>
		for (uint8_t i = 0; i < ARROW_WIDTH; i++){
			goto_OLED_physical_column(i);
			write_OLED_data(0);
		}
	}
	current_page = temp_page;
     b7c:	d0 92 e2 03 	sts	0x03E2, r13
	current_column = temp_col;
     b80:	e0 92 e3 03 	sts	0x03E3, r14
	return;
}
     b84:	df 91       	pop	r29
     b86:	cf 91       	pop	r28
     b88:	1f 91       	pop	r17
     b8a:	0f 91       	pop	r16
     b8c:	ff 90       	pop	r15
     b8e:	ef 90       	pop	r14
     b90:	df 90       	pop	r13
     b92:	08 95       	ret

00000b94 <clear_OLED_page>:
	current_column = column;
	return;
}

void clear_OLED_page(uint8_t page){
	goto_OLED_page(page);
     b94:	0e 94 75 05 	call	0xaea	; 0xaea <goto_OLED_page>
	for (uint8_t i = 0; i < DISPLAY_COLUMNS; i++){
     b98:	80 e0       	ldi	r24, 0x00	; 0
	*ext_oled_cs = number;
}

void write_OLED_data(uint8_t number){
	volatile char *ext_oled_dc = (char *) 0x1200;
	*ext_oled_dc = number;
     b9a:	e0 e0       	ldi	r30, 0x00	; 0
     b9c:	f2 e1       	ldi	r31, 0x12	; 18
     b9e:	10 82       	st	Z, r1
	return;
}

void clear_OLED_page(uint8_t page){
	goto_OLED_page(page);
	for (uint8_t i = 0; i < DISPLAY_COLUMNS; i++){
     ba0:	8f 5f       	subi	r24, 0xFF	; 255
     ba2:	80 38       	cpi	r24, 0x80	; 128
     ba4:	e1 f7       	brne	.-8      	; 0xb9e <clear_OLED_page+0xa>
		write_OLED_data(0);
	}
	return;
}
     ba6:	08 95       	ret

00000ba8 <OLED_reset>:
	volatile char *ext_oled_dc = (char *) 0x1200;
	*ext_oled_dc = number;
}


void OLED_reset(){
     ba8:	cf 93       	push	r28
}


void write_OLED_cmd(uint8_t number){
	volatile char *ext_oled_cs = (char *) 0x1000;
	*ext_oled_cs = number;
     baa:	80 e4       	ldi	r24, 0x40	; 64
     bac:	80 93 00 10 	sts	0x1000, r24
}


void OLED_reset(){
	write_OLED_cmd(0x40);		//Set display line start at page 0. 
	for (uint8_t i = 0; i < DISPLAY_PAGES; i++){
     bb0:	c0 e0       	ldi	r28, 0x00	; 0
		clear_OLED_page(i);
     bb2:	8c 2f       	mov	r24, r28
     bb4:	0e 94 ca 05 	call	0xb94	; 0xb94 <clear_OLED_page>
}


void OLED_reset(){
	write_OLED_cmd(0x40);		//Set display line start at page 0. 
	for (uint8_t i = 0; i < DISPLAY_PAGES; i++){
     bb8:	cf 5f       	subi	r28, 0xFF	; 255
     bba:	c8 30       	cpi	r28, 0x08	; 8
     bbc:	d1 f7       	brne	.-12     	; 0xbb2 <OLED_reset+0xa>
		clear_OLED_page(i);
	}
	OLED_home();
     bbe:	0e 94 8d 05 	call	0xb1a	; 0xb1a <OLED_home>
	return;
}
     bc2:	cf 91       	pop	r28
     bc4:	08 95       	ret

00000bc6 <OLED_init>:
}


void write_OLED_cmd(uint8_t number){
	volatile char *ext_oled_cs = (char *) 0x1000;
	*ext_oled_cs = number;
     bc6:	e0 e0       	ldi	r30, 0x00	; 0
     bc8:	f0 e1       	ldi	r31, 0x10	; 16
     bca:	8e ea       	ldi	r24, 0xAE	; 174
     bcc:	80 83       	st	Z, r24
     bce:	81 ea       	ldi	r24, 0xA1	; 161
     bd0:	80 83       	st	Z, r24
     bd2:	8a ed       	ldi	r24, 0xDA	; 218
     bd4:	80 83       	st	Z, r24
     bd6:	82 e1       	ldi	r24, 0x12	; 18
     bd8:	80 83       	st	Z, r24
     bda:	88 ec       	ldi	r24, 0xC8	; 200
     bdc:	80 83       	st	Z, r24
     bde:	88 ea       	ldi	r24, 0xA8	; 168
     be0:	80 83       	st	Z, r24
     be2:	8f e3       	ldi	r24, 0x3F	; 63
     be4:	80 83       	st	Z, r24
     be6:	85 ed       	ldi	r24, 0xD5	; 213
     be8:	80 83       	st	Z, r24
     bea:	80 e8       	ldi	r24, 0x80	; 128
     bec:	80 83       	st	Z, r24
     bee:	81 e8       	ldi	r24, 0x81	; 129
     bf0:	80 83       	st	Z, r24
     bf2:	80 e5       	ldi	r24, 0x50	; 80
     bf4:	80 83       	st	Z, r24
     bf6:	89 ed       	ldi	r24, 0xD9	; 217
     bf8:	80 83       	st	Z, r24
     bfa:	81 e2       	ldi	r24, 0x21	; 33
     bfc:	80 83       	st	Z, r24
     bfe:	80 e2       	ldi	r24, 0x20	; 32
     c00:	80 83       	st	Z, r24
     c02:	82 e0       	ldi	r24, 0x02	; 2
     c04:	80 83       	st	Z, r24
     c06:	8b ed       	ldi	r24, 0xDB	; 219
     c08:	80 83       	st	Z, r24
     c0a:	80 e3       	ldi	r24, 0x30	; 48
     c0c:	80 83       	st	Z, r24
     c0e:	8d ea       	ldi	r24, 0xAD	; 173
     c10:	80 83       	st	Z, r24
     c12:	10 82       	st	Z, r1
     c14:	84 ea       	ldi	r24, 0xA4	; 164
     c16:	80 83       	st	Z, r24
     c18:	86 ea       	ldi	r24, 0xA6	; 166
     c1a:	80 83       	st	Z, r24
     c1c:	8f ea       	ldi	r24, 0xAF	; 175
     c1e:	80 83       	st	Z, r24
	
	//write_OLED_cmd(0xA7);		//Inverse display.
	//write_OLED_cmd(0xA5);		//Output ignores RAM content. 
	
	
	OLED_reset();
     c20:	0e 94 d4 05 	call	0xba8	; 0xba8 <OLED_reset>
	set_font4x6();
     c24:	0e 94 65 05 	call	0xaca	; 0xaca <set_font4x6>
     c28:	08 95       	ret

00000c2a <print_to_OLED>:

void OLED_pos(uint8_t page, uint8_t column){
	return;
}

void print_to_OLED(const char * string, uint8_t start_column){
     c2a:	3f 92       	push	r3
     c2c:	4f 92       	push	r4
     c2e:	5f 92       	push	r5
     c30:	6f 92       	push	r6
     c32:	7f 92       	push	r7
     c34:	8f 92       	push	r8
     c36:	9f 92       	push	r9
     c38:	af 92       	push	r10
     c3a:	bf 92       	push	r11
     c3c:	cf 92       	push	r12
     c3e:	df 92       	push	r13
     c40:	ef 92       	push	r14
     c42:	ff 92       	push	r15
     c44:	0f 93       	push	r16
     c46:	1f 93       	push	r17
     c48:	cf 93       	push	r28
     c4a:	df 93       	push	r29
     c4c:	ec 01       	movw	r28, r24
     c4e:	36 2e       	mov	r3, r22
	goto_OLED_char_column(start_column);
     c50:	86 2f       	mov	r24, r22
     c52:	0e 94 7c 05 	call	0xaf8	; 0xaf8 <goto_OLED_char_column>
	int length = strlen(string);
     c56:	fe 01       	movw	r30, r28
     c58:	01 90       	ld	r0, Z+
     c5a:	00 20       	and	r0, r0
     c5c:	e9 f7       	brne	.-6      	; 0xc58 <print_to_OLED+0x2e>
     c5e:	31 97       	sbiw	r30, 0x01	; 1
     c60:	3f 01       	movw	r6, r30
     c62:	6c 1a       	sub	r6, r28
     c64:	7d 0a       	sbc	r7, r29
	
	for (int i = 0; i < length; i++){
     c66:	16 14       	cp	r1, r6
     c68:	17 04       	cpc	r1, r7
     c6a:	0c f0       	brlt	.+2      	; 0xc6e <print_to_OLED+0x44>
     c6c:	57 c0       	rjmp	.+174    	; 0xd1c <print_to_OLED+0xf2>
     c6e:	4e 01       	movw	r8, r28
     c70:	a1 2c       	mov	r10, r1
     c72:	b1 2c       	mov	r11, r1
		if (c == '\n') {
			goto_OLED_page((current_page + 1) % DISPLAY_PAGES);
			goto_OLED_char_column(start_column);
		}
		else{
			for (int j = 0; j < font_type.width; j++){
     c74:	ce e9       	ldi	r28, 0x9E	; 158
     c76:	d4 e0       	ldi	r29, 0x04	; 4
     c78:	51 2c       	mov	r5, r1
     c7a:	41 2c       	mov	r4, r1
				write_OLED_data(pgm_read_byte(font_type.data + (c - font_type.ascii_offset) * font_type.width +j));
     c7c:	0f 2e       	mov	r0, r31
     c7e:	f1 ea       	ldi	r31, 0xA1	; 161
     c80:	cf 2e       	mov	r12, r31
     c82:	f4 e0       	ldi	r31, 0x04	; 4
     c84:	df 2e       	mov	r13, r31
     c86:	f0 2d       	mov	r31, r0
     c88:	0f 2e       	mov	r0, r31
     c8a:	f0 ea       	ldi	r31, 0xA0	; 160
     c8c:	ef 2e       	mov	r14, r31
     c8e:	f4 e0       	ldi	r31, 0x04	; 4
     c90:	ff 2e       	mov	r15, r31
     c92:	f0 2d       	mov	r31, r0
	*ext_oled_cs = number;
}

void write_OLED_data(uint8_t number){
	volatile char *ext_oled_dc = (char *) 0x1200;
	*ext_oled_dc = number;
     c94:	00 e0       	ldi	r16, 0x00	; 0
     c96:	12 e1       	ldi	r17, 0x12	; 18
void print_to_OLED(const char * string, uint8_t start_column){
	goto_OLED_char_column(start_column);
	int length = strlen(string);
	
	for (int i = 0; i < length; i++){
		char c = string[i];
     c98:	d4 01       	movw	r26, r8
     c9a:	4d 91       	ld	r20, X+
     c9c:	4d 01       	movw	r8, r26
		if (c == '\n') {
     c9e:	4a 30       	cpi	r20, 0x0A	; 10
     ca0:	31 f0       	breq	.+12     	; 0xcae <print_to_OLED+0x84>
			goto_OLED_page((current_page + 1) % DISPLAY_PAGES);
			goto_OLED_char_column(start_column);
		}
		else{
			for (int j = 0; j < font_type.width; j++){
     ca2:	28 81       	ld	r18, Y
     ca4:	30 e0       	ldi	r19, 0x00	; 0
     ca6:	12 16       	cp	r1, r18
     ca8:	13 06       	cpc	r1, r19
     caa:	6c f0       	brlt	.+26     	; 0xcc6 <print_to_OLED+0x9c>
     cac:	30 c0       	rjmp	.+96     	; 0xd0e <print_to_OLED+0xe4>
	int length = strlen(string);
	
	for (int i = 0; i < length; i++){
		char c = string[i];
		if (c == '\n') {
			goto_OLED_page((current_page + 1) % DISPLAY_PAGES);
     cae:	80 91 e2 03 	lds	r24, 0x03E2
     cb2:	90 e0       	ldi	r25, 0x00	; 0
     cb4:	01 96       	adiw	r24, 0x01	; 1
     cb6:	87 70       	andi	r24, 0x07	; 7
     cb8:	90 78       	andi	r25, 0x80	; 128
     cba:	0e 94 75 05 	call	0xaea	; 0xaea <goto_OLED_page>
			goto_OLED_char_column(start_column);
     cbe:	83 2d       	mov	r24, r3
     cc0:	0e 94 7c 05 	call	0xaf8	; 0xaf8 <goto_OLED_char_column>
     cc4:	24 c0       	rjmp	.+72     	; 0xd0e <print_to_OLED+0xe4>
		}
		else{
			for (int j = 0; j < font_type.width; j++){
     cc6:	85 2d       	mov	r24, r5
     cc8:	94 2d       	mov	r25, r4
				write_OLED_data(pgm_read_byte(font_type.data + (c - font_type.ascii_offset) * font_type.width +j));
     cca:	50 e0       	ldi	r21, 0x00	; 0
     ccc:	f7 01       	movw	r30, r14
     cce:	60 81       	ld	r22, Z
     cd0:	da 01       	movw	r26, r20
     cd2:	a6 1b       	sub	r26, r22
     cd4:	b1 09       	sbc	r27, r1
     cd6:	2a 9f       	mul	r18, r26
     cd8:	f0 01       	movw	r30, r0
     cda:	2b 9f       	mul	r18, r27
     cdc:	f0 0d       	add	r31, r0
     cde:	3a 9f       	mul	r19, r26
     ce0:	f0 0d       	add	r31, r0
     ce2:	11 24       	eor	r1, r1
     ce4:	e8 0f       	add	r30, r24
     ce6:	f9 1f       	adc	r31, r25
     ce8:	d6 01       	movw	r26, r12
     cea:	2d 91       	ld	r18, X+
     cec:	3c 91       	ld	r19, X
     cee:	e2 0f       	add	r30, r18
     cf0:	f3 1f       	adc	r31, r19
     cf2:	e4 91       	lpm	r30, Z
	*ext_oled_cs = number;
}

void write_OLED_data(uint8_t number){
	volatile char *ext_oled_dc = (char *) 0x1200;
	*ext_oled_dc = number;
     cf4:	d8 01       	movw	r26, r16
     cf6:	ec 93       	st	X, r30
		else{
			for (int j = 0; j < font_type.width; j++){
				write_OLED_data(pgm_read_byte(font_type.data + (c - font_type.ascii_offset) * font_type.width +j));
				//write_OLED_data(pgm_read_byte(&font[c-font_type.ascii_offset][j]));
				//write_OLED_data(pgm_read_byte(&font_type.data[c-font_type.ascii_offset][j]));
				current_column = current_column + font_type.width;
     cf8:	30 91 e3 03 	lds	r19, 0x03E3
     cfc:	28 81       	ld	r18, Y
     cfe:	32 0f       	add	r19, r18
     d00:	30 93 e3 03 	sts	0x03E3, r19
		if (c == '\n') {
			goto_OLED_page((current_page + 1) % DISPLAY_PAGES);
			goto_OLED_char_column(start_column);
		}
		else{
			for (int j = 0; j < font_type.width; j++){
     d04:	01 96       	adiw	r24, 0x01	; 1
     d06:	30 e0       	ldi	r19, 0x00	; 0
     d08:	82 17       	cp	r24, r18
     d0a:	93 07       	cpc	r25, r19
     d0c:	fc f2       	brlt	.-66     	; 0xccc <print_to_OLED+0xa2>

void print_to_OLED(const char * string, uint8_t start_column){
	goto_OLED_char_column(start_column);
	int length = strlen(string);
	
	for (int i = 0; i < length; i++){
     d0e:	bf ef       	ldi	r27, 0xFF	; 255
     d10:	ab 1a       	sub	r10, r27
     d12:	bb 0a       	sbc	r11, r27
     d14:	6a 14       	cp	r6, r10
     d16:	7b 04       	cpc	r7, r11
     d18:	09 f0       	breq	.+2      	; 0xd1c <print_to_OLED+0xf2>
     d1a:	be cf       	rjmp	.-132    	; 0xc98 <print_to_OLED+0x6e>
				current_column = current_column + font_type.width;
			}
		}
	}
	return;
}
     d1c:	df 91       	pop	r29
     d1e:	cf 91       	pop	r28
     d20:	1f 91       	pop	r17
     d22:	0f 91       	pop	r16
     d24:	ff 90       	pop	r15
     d26:	ef 90       	pop	r14
     d28:	df 90       	pop	r13
     d2a:	cf 90       	pop	r12
     d2c:	bf 90       	pop	r11
     d2e:	af 90       	pop	r10
     d30:	9f 90       	pop	r9
     d32:	8f 90       	pop	r8
     d34:	7f 90       	pop	r7
     d36:	6f 90       	pop	r6
     d38:	5f 90       	pop	r5
     d3a:	4f 90       	pop	r4
     d3c:	3f 90       	pop	r3
     d3e:	08 95       	ret

00000d40 <OLED_print_arrow>:

void OLED_print_arrow(uint8_t page)
{	int temp = current_page;
     d40:	cf 93       	push	r28
     d42:	c0 91 e2 03 	lds	r28, 0x03E2
	goto_OLED_page(page);
     d46:	0e 94 75 05 	call	0xaea	; 0xaea <goto_OLED_page>
	goto_OLED_physical_column(1);
     d4a:	81 e0       	ldi	r24, 0x01	; 1
     d4c:	0e 94 94 05 	call	0xb28	; 0xb28 <goto_OLED_physical_column>
	*ext_oled_cs = number;
}

void write_OLED_data(uint8_t number){
	volatile char *ext_oled_dc = (char *) 0x1200;
	*ext_oled_dc = number;
     d50:	e0 e0       	ldi	r30, 0x00	; 0
     d52:	f2 e1       	ldi	r31, 0x12	; 18
     d54:	98 e1       	ldi	r25, 0x18	; 24
     d56:	90 83       	st	Z, r25
     d58:	90 83       	st	Z, r25
     d5a:	8e e7       	ldi	r24, 0x7E	; 126
     d5c:	80 83       	st	Z, r24
     d5e:	8c e3       	ldi	r24, 0x3C	; 60
     d60:	80 83       	st	Z, r24
     d62:	90 83       	st	Z, r25
	write_OLED_data(0b00011000);
	write_OLED_data(0b00011000);
	write_OLED_data(0b01111110);
	write_OLED_data(0b00111100);
	write_OLED_data(0b00011000);
	current_column = ARROW_WIDTH;
     d64:	88 e0       	ldi	r24, 0x08	; 8
     d66:	80 93 e3 03 	sts	0x03E3, r24
	
	goto_OLED_page(temp);
     d6a:	8c 2f       	mov	r24, r28
     d6c:	0e 94 75 05 	call	0xaea	; 0xaea <goto_OLED_page>
}
     d70:	cf 91       	pop	r28
     d72:	08 95       	ret

00000d74 <OLED_print_square>:

void OLED_print_square(uint8_t page,uint8_t column){
     d74:	cf 93       	push	r28
     d76:	c6 2f       	mov	r28, r22
//	int temp_page = current_page;
//	int temp_column=current_column;
	goto_OLED_page(page);
     d78:	0e 94 75 05 	call	0xaea	; 0xaea <goto_OLED_page>
	goto_OLED_physical_column(column);
     d7c:	8c 2f       	mov	r24, r28
     d7e:	0e 94 94 05 	call	0xb28	; 0xb28 <goto_OLED_physical_column>
	*ext_oled_cs = number;
}

void write_OLED_data(uint8_t number){
	volatile char *ext_oled_dc = (char *) 0x1200;
	*ext_oled_dc = number;
     d82:	e0 e0       	ldi	r30, 0x00	; 0
     d84:	f2 e1       	ldi	r31, 0x12	; 18
     d86:	8f ef       	ldi	r24, 0xFF	; 255
     d88:	80 83       	st	Z, r24
     d8a:	80 83       	st	Z, r24
     d8c:	80 83       	st	Z, r24
     d8e:	80 83       	st	Z, r24
	write_OLED_data(0b11111111);
	write_OLED_data(0b11111111);
	write_OLED_data(0b11111111);
//	current_column=temp_column + font_type.width;
//	goto_OLED_page(temp_page);
}
     d90:	cf 91       	pop	r28
     d92:	08 95       	ret

00000d94 <goto_next_pixel>:
	
	OLED_print_square(current_page, current_column);
}

void goto_next_pixel(){
	joy_relative_pos();
     d94:	0e 94 80 02 	call	0x500	; 0x500 <joy_relative_pos>
	
	joy_direction x_dir=NEUTRAL;
	joy_direction y_dir=NEUTRAL;

	if (rel_position.x_pos>=-20 && rel_position.x_pos<=20){
     d98:	80 91 5c 04 	lds	r24, 0x045C
     d9c:	90 91 5d 04 	lds	r25, 0x045D
     da0:	9c 01       	movw	r18, r24
     da2:	2c 5e       	subi	r18, 0xEC	; 236
     da4:	3f 4f       	sbci	r19, 0xFF	; 255
     da6:	29 32       	cpi	r18, 0x29	; 41
     da8:	31 05       	cpc	r19, r1
     daa:	68 f0       	brcs	.+26     	; 0xdc6 <goto_next_pixel+0x32>
		x_dir=NEUTRAL;
	}
	else if (rel_position.x_pos>=20){
     dac:	44 97       	sbiw	r24, 0x14	; 20
     dae:	34 f0       	brlt	.+12     	; 0xdbc <goto_next_pixel+0x28>
		x_dir=RIGHT;
		goto_OLED_physical_column(current_column+1);
     db0:	80 91 e3 03 	lds	r24, 0x03E3
     db4:	8f 5f       	subi	r24, 0xFF	; 255
     db6:	0e 94 94 05 	call	0xb28	; 0xb28 <goto_OLED_physical_column>
     dba:	05 c0       	rjmp	.+10     	; 0xdc6 <goto_next_pixel+0x32>
	}
	else{
		x_dir=LEFT;
		goto_OLED_physical_column(current_column-1);
     dbc:	80 91 e3 03 	lds	r24, 0x03E3
     dc0:	81 50       	subi	r24, 0x01	; 1
     dc2:	0e 94 94 05 	call	0xb28	; 0xb28 <goto_OLED_physical_column>
	}


	if (rel_position.y_pos>=-20 && rel_position.y_pos<=20){
     dc6:	80 91 5e 04 	lds	r24, 0x045E
     dca:	90 91 5f 04 	lds	r25, 0x045F
     dce:	9c 01       	movw	r18, r24
     dd0:	2c 5e       	subi	r18, 0xEC	; 236
     dd2:	3f 4f       	sbci	r19, 0xFF	; 255
     dd4:	29 32       	cpi	r18, 0x29	; 41
     dd6:	31 05       	cpc	r19, r1
     dd8:	68 f0       	brcs	.+26     	; 0xdf4 <goto_next_pixel+0x60>
		y_dir=NEUTRAL;
	}
	else if (rel_position.y_pos>=20){
     dda:	44 97       	sbiw	r24, 0x14	; 20
     ddc:	34 f0       	brlt	.+12     	; 0xdea <goto_next_pixel+0x56>
		y_dir=UP;
		goto_OLED_page(current_page-1);
     dde:	80 91 e2 03 	lds	r24, 0x03E2
     de2:	81 50       	subi	r24, 0x01	; 1
     de4:	0e 94 75 05 	call	0xaea	; 0xaea <goto_OLED_page>
     de8:	08 95       	ret
	}
	else{
		y_dir=DOWN;
		goto_OLED_page(current_page+1);
     dea:	80 91 e2 03 	lds	r24, 0x03E2
     dee:	8f 5f       	subi	r24, 0xFF	; 255
     df0:	0e 94 75 05 	call	0xaea	; 0xaea <goto_OLED_page>
     df4:	08 95       	ret

00000df6 <draw_OLED>:
}


void draw_OLED(){
	
	goto_next_pixel();
     df6:	0e 94 ca 06 	call	0xd94	; 0xd94 <goto_next_pixel>
	*/
	
	//get_joy_direction();
	
	
	OLED_print_square(current_page, current_column);
     dfa:	60 91 e3 03 	lds	r22, 0x03E3
     dfe:	80 91 e2 03 	lds	r24, 0x03E2
     e02:	0e 94 ba 06 	call	0xd74	; 0xd74 <OLED_print_square>
     e06:	08 95       	ret

00000e08 <slider_init>:




void slider_init(void){
	DDRD &= ~((1<<PD2) | (1<<PD3));
     e08:	81 b3       	in	r24, 0x11	; 17
     e0a:	83 7f       	andi	r24, 0xF3	; 243
     e0c:	81 bb       	out	0x11, r24	; 17
	
	/* Enable slider button interrupts. */
	cli();								// Disable global interrupts
     e0e:	f8 94       	cli
	MCUCR |= (1<<ISC01) | (1<<ISC11);	// Interrupt on rising edge PD2 and PD3. 
     e10:	85 b7       	in	r24, 0x35	; 53
     e12:	8a 60       	ori	r24, 0x0A	; 10
     e14:	85 bf       	out	0x35, r24	; 53
	GICR |= (1<<INT0) | (1<< INT1);		// Enable interrupt on PD2 and PD3. 
     e16:	8b b7       	in	r24, 0x3b	; 59
     e18:	80 6c       	ori	r24, 0xC0	; 192
     e1a:	8b bf       	out	0x3b, r24	; 59
	sei();								// Enable global interrupts
     e1c:	78 94       	sei
     e1e:	08 95       	ret

00000e20 <SPI_init>:
	#define SCK		1
#endif


void SPI_init(){
	DDRB |= (1<<MOSI) | (1<<SCK) | (1<<SSn);		//Set MOSI, SCK, SSn output.
     e20:	87 b3       	in	r24, 0x17	; 23
     e22:	80 6b       	ori	r24, 0xB0	; 176
     e24:	87 bb       	out	0x17, r24	; 23
	DDRB &= ~((1<<MISO));		//Set MISO input.
     e26:	be 98       	cbi	0x17, 6	; 23
	PORTB|=(1<<MISO);
     e28:	c6 9a       	sbi	0x18, 6	; 24
	SPCR |= (1<<SPE) | (1<<MSTR)|(1<<SPR0);	//Enable SPI, Master, set clock rate fck/16.
     e2a:	8d b1       	in	r24, 0x0d	; 13
     e2c:	81 65       	ori	r24, 0x51	; 81
     e2e:	8d b9       	out	0x0d, r24	; 13
     e30:	08 95       	ret

00000e32 <send_SPI>:
}


void send_SPI(char data){
	
	SPDR = data;			//Send data.
     e32:	8f b9       	out	0x0f, r24	; 15
	while (!(SPSR & (1<<SPIF))) {}		//Wait for transmission complete.
     e34:	77 9b       	sbis	0x0e, 7	; 14
     e36:	fe cf       	rjmp	.-4      	; 0xe34 <send_SPI+0x2>
	
}
     e38:	08 95       	ret

00000e3a <read_SPI>:

char read_SPI(){	
	send_SPI(0xFF);		//Send dummy byte.		
     e3a:	8f ef       	ldi	r24, 0xFF	; 255
     e3c:	0e 94 19 07 	call	0xe32	; 0xe32 <send_SPI>
	while (!(SPSR & (1<<SPIF))) {}		//Wait for transmission complete.
     e40:	77 9b       	sbis	0x0e, 7	; 14
     e42:	fe cf       	rjmp	.-4      	; 0xe40 <read_SPI+0x6>
	return SPDR;
     e44:	8f b1       	in	r24, 0x0f	; 15
}
     e46:	08 95       	ret

00000e48 <spi_chipselect_activate>:

void spi_chipselect_activate(){
	PORTB |=(1<<SSn);
     e48:	c4 9a       	sbi	0x18, 4	; 24
     e4a:	08 95       	ret

00000e4c <spi_chipselect_deactivate>:
}

void spi_chipselect_deactivate(){
	PORTB &=~(1<<SSn);
     e4c:	c4 98       	cbi	0x18, 4	; 24
     e4e:	08 95       	ret

00000e50 <UART_Transmit>:
	}
	
void UART_Transmit( unsigned char data )
{
	/* Wait for empty transmit buffer*/
		while( !( UCSR0A & (1<<UDRE0)) )
     e50:	5d 9b       	sbis	0x0b, 5	; 11
     e52:	fe cf       	rjmp	.-4      	; 0xe50 <UART_Transmit>
		;
	/* Put data into buffer, sends the data*/
		UDR0 = data;
     e54:	8c b9       	out	0x0c, r24	; 12
     e56:	08 95       	ret

00000e58 <UART_Receive>:
}

unsigned char UART_Receive(void)
	{
		/* Wait for data to be received*/
		while( !(UCSR0A & (1<<RXC0)) )
     e58:	5f 9b       	sbis	0x0b, 7	; 11
     e5a:	fe cf       	rjmp	.-4      	; 0xe58 <UART_Receive>
			;
		/* Get and return received data from buffer*/
		return UDR0;
     e5c:	8c b1       	in	r24, 0x0c	; 12
     e5e:	08 95       	ret

00000e60 <UART_Init>:
#define MYUBRR FOSC/16/BAUD-1

void UART_Init(unsigned int ubrr)
	{
		/* Set baud rate */
		UBRR0H = (unsigned char)(ubrr>>8);
     e60:	90 bd       	out	0x20, r25	; 32
		UBRR0L = (unsigned char)ubrr;
     e62:	89 b9       	out	0x09, r24	; 9
		/* Enable receiver and transmitter */
		UCSR0B = (1<<RXEN0)|(1<<TXEN0);
     e64:	88 e1       	ldi	r24, 0x18	; 24
     e66:	8a b9       	out	0x0a, r24	; 10
		/* 
		Set frame format: 8data, 2stop bit
		*/
		UCSR0C = (1<<URSEL0)|(1<<USBS0)|(3<<UCSZ00);
     e68:	8e e8       	ldi	r24, 0x8E	; 142
     e6a:	80 bd       	out	0x20, r24	; 32
		fdevopen(&UART_Transmit, &UART_Receive);
     e6c:	6c e2       	ldi	r22, 0x2C	; 44
     e6e:	77 e0       	ldi	r23, 0x07	; 7
     e70:	88 e2       	ldi	r24, 0x28	; 40
     e72:	97 e0       	ldi	r25, 0x07	; 7
     e74:	0e 94 65 07 	call	0xeca	; 0xeca <fdevopen>
     e78:	08 95       	ret

00000e7a <__divmodhi4>:
     e7a:	97 fb       	bst	r25, 7
     e7c:	07 2e       	mov	r0, r23
     e7e:	16 f4       	brtc	.+4      	; 0xe84 <__divmodhi4+0xa>
     e80:	00 94       	com	r0
     e82:	07 d0       	rcall	.+14     	; 0xe92 <__divmodhi4_neg1>
     e84:	77 fd       	sbrc	r23, 7
     e86:	09 d0       	rcall	.+18     	; 0xe9a <__divmodhi4_neg2>
     e88:	0e 94 51 07 	call	0xea2	; 0xea2 <__udivmodhi4>
     e8c:	07 fc       	sbrc	r0, 7
     e8e:	05 d0       	rcall	.+10     	; 0xe9a <__divmodhi4_neg2>
     e90:	3e f4       	brtc	.+14     	; 0xea0 <__divmodhi4_exit>

00000e92 <__divmodhi4_neg1>:
     e92:	90 95       	com	r25
     e94:	81 95       	neg	r24
     e96:	9f 4f       	sbci	r25, 0xFF	; 255
     e98:	08 95       	ret

00000e9a <__divmodhi4_neg2>:
     e9a:	70 95       	com	r23
     e9c:	61 95       	neg	r22
     e9e:	7f 4f       	sbci	r23, 0xFF	; 255

00000ea0 <__divmodhi4_exit>:
     ea0:	08 95       	ret

00000ea2 <__udivmodhi4>:
     ea2:	aa 1b       	sub	r26, r26
     ea4:	bb 1b       	sub	r27, r27
     ea6:	51 e1       	ldi	r21, 0x11	; 17
     ea8:	07 c0       	rjmp	.+14     	; 0xeb8 <__udivmodhi4_ep>

00000eaa <__udivmodhi4_loop>:
     eaa:	aa 1f       	adc	r26, r26
     eac:	bb 1f       	adc	r27, r27
     eae:	a6 17       	cp	r26, r22
     eb0:	b7 07       	cpc	r27, r23
     eb2:	10 f0       	brcs	.+4      	; 0xeb8 <__udivmodhi4_ep>
     eb4:	a6 1b       	sub	r26, r22
     eb6:	b7 0b       	sbc	r27, r23

00000eb8 <__udivmodhi4_ep>:
     eb8:	88 1f       	adc	r24, r24
     eba:	99 1f       	adc	r25, r25
     ebc:	5a 95       	dec	r21
     ebe:	a9 f7       	brne	.-22     	; 0xeaa <__udivmodhi4_loop>
     ec0:	80 95       	com	r24
     ec2:	90 95       	com	r25
     ec4:	bc 01       	movw	r22, r24
     ec6:	cd 01       	movw	r24, r26
     ec8:	08 95       	ret

00000eca <fdevopen>:
     eca:	0f 93       	push	r16
     ecc:	1f 93       	push	r17
     ece:	cf 93       	push	r28
     ed0:	df 93       	push	r29
     ed2:	ec 01       	movw	r28, r24
     ed4:	8b 01       	movw	r16, r22
     ed6:	00 97       	sbiw	r24, 0x00	; 0
     ed8:	31 f4       	brne	.+12     	; 0xee6 <fdevopen+0x1c>
     eda:	61 15       	cp	r22, r1
     edc:	71 05       	cpc	r23, r1
     ede:	19 f4       	brne	.+6      	; 0xee6 <fdevopen+0x1c>
     ee0:	80 e0       	ldi	r24, 0x00	; 0
     ee2:	90 e0       	ldi	r25, 0x00	; 0
     ee4:	38 c0       	rjmp	.+112    	; 0xf56 <fdevopen+0x8c>
     ee6:	6e e0       	ldi	r22, 0x0E	; 14
     ee8:	70 e0       	ldi	r23, 0x00	; 0
     eea:	81 e0       	ldi	r24, 0x01	; 1
     eec:	90 e0       	ldi	r25, 0x00	; 0
     eee:	0e 94 dd 07 	call	0xfba	; 0xfba <calloc>
     ef2:	fc 01       	movw	r30, r24
     ef4:	00 97       	sbiw	r24, 0x00	; 0
     ef6:	a1 f3       	breq	.-24     	; 0xee0 <fdevopen+0x16>
     ef8:	80 e8       	ldi	r24, 0x80	; 128
     efa:	83 83       	std	Z+3, r24	; 0x03
     efc:	01 15       	cp	r16, r1
     efe:	11 05       	cpc	r17, r1
     f00:	71 f0       	breq	.+28     	; 0xf1e <fdevopen+0x54>
     f02:	13 87       	std	Z+11, r17	; 0x0b
     f04:	02 87       	std	Z+10, r16	; 0x0a
     f06:	81 e8       	ldi	r24, 0x81	; 129
     f08:	83 83       	std	Z+3, r24	; 0x03
     f0a:	80 91 aa 04 	lds	r24, 0x04AA
     f0e:	90 91 ab 04 	lds	r25, 0x04AB
     f12:	89 2b       	or	r24, r25
     f14:	21 f4       	brne	.+8      	; 0xf1e <fdevopen+0x54>
     f16:	f0 93 ab 04 	sts	0x04AB, r31
     f1a:	e0 93 aa 04 	sts	0x04AA, r30
     f1e:	20 97       	sbiw	r28, 0x00	; 0
     f20:	c9 f0       	breq	.+50     	; 0xf54 <fdevopen+0x8a>
     f22:	d1 87       	std	Z+9, r29	; 0x09
     f24:	c0 87       	std	Z+8, r28	; 0x08
     f26:	83 81       	ldd	r24, Z+3	; 0x03
     f28:	82 60       	ori	r24, 0x02	; 2
     f2a:	83 83       	std	Z+3, r24	; 0x03
     f2c:	80 91 ac 04 	lds	r24, 0x04AC
     f30:	90 91 ad 04 	lds	r25, 0x04AD
     f34:	89 2b       	or	r24, r25
     f36:	71 f4       	brne	.+28     	; 0xf54 <fdevopen+0x8a>
     f38:	f0 93 ad 04 	sts	0x04AD, r31
     f3c:	e0 93 ac 04 	sts	0x04AC, r30
     f40:	80 91 ae 04 	lds	r24, 0x04AE
     f44:	90 91 af 04 	lds	r25, 0x04AF
     f48:	89 2b       	or	r24, r25
     f4a:	21 f4       	brne	.+8      	; 0xf54 <fdevopen+0x8a>
     f4c:	f0 93 af 04 	sts	0x04AF, r31
     f50:	e0 93 ae 04 	sts	0x04AE, r30
     f54:	cf 01       	movw	r24, r30
     f56:	df 91       	pop	r29
     f58:	cf 91       	pop	r28
     f5a:	1f 91       	pop	r17
     f5c:	0f 91       	pop	r16
     f5e:	08 95       	ret

00000f60 <puts>:
     f60:	0f 93       	push	r16
     f62:	1f 93       	push	r17
     f64:	cf 93       	push	r28
     f66:	df 93       	push	r29
     f68:	e0 91 ac 04 	lds	r30, 0x04AC
     f6c:	f0 91 ad 04 	lds	r31, 0x04AD
     f70:	23 81       	ldd	r18, Z+3	; 0x03
     f72:	21 ff       	sbrs	r18, 1
     f74:	1b c0       	rjmp	.+54     	; 0xfac <puts+0x4c>
     f76:	ec 01       	movw	r28, r24
     f78:	00 e0       	ldi	r16, 0x00	; 0
     f7a:	10 e0       	ldi	r17, 0x00	; 0
     f7c:	89 91       	ld	r24, Y+
     f7e:	60 91 ac 04 	lds	r22, 0x04AC
     f82:	70 91 ad 04 	lds	r23, 0x04AD
     f86:	db 01       	movw	r26, r22
     f88:	18 96       	adiw	r26, 0x08	; 8
     f8a:	ed 91       	ld	r30, X+
     f8c:	fc 91       	ld	r31, X
     f8e:	19 97       	sbiw	r26, 0x09	; 9
     f90:	88 23       	and	r24, r24
     f92:	31 f0       	breq	.+12     	; 0xfa0 <puts+0x40>
     f94:	09 95       	icall
     f96:	89 2b       	or	r24, r25
     f98:	89 f3       	breq	.-30     	; 0xf7c <puts+0x1c>
     f9a:	0f ef       	ldi	r16, 0xFF	; 255
     f9c:	1f ef       	ldi	r17, 0xFF	; 255
     f9e:	ee cf       	rjmp	.-36     	; 0xf7c <puts+0x1c>
     fa0:	8a e0       	ldi	r24, 0x0A	; 10
     fa2:	09 95       	icall
     fa4:	89 2b       	or	r24, r25
     fa6:	11 f4       	brne	.+4      	; 0xfac <puts+0x4c>
     fa8:	c8 01       	movw	r24, r16
     faa:	02 c0       	rjmp	.+4      	; 0xfb0 <puts+0x50>
     fac:	8f ef       	ldi	r24, 0xFF	; 255
     fae:	9f ef       	ldi	r25, 0xFF	; 255
     fb0:	df 91       	pop	r29
     fb2:	cf 91       	pop	r28
     fb4:	1f 91       	pop	r17
     fb6:	0f 91       	pop	r16
     fb8:	08 95       	ret

00000fba <calloc>:
     fba:	0f 93       	push	r16
     fbc:	1f 93       	push	r17
     fbe:	cf 93       	push	r28
     fc0:	df 93       	push	r29
     fc2:	86 9f       	mul	r24, r22
     fc4:	80 01       	movw	r16, r0
     fc6:	87 9f       	mul	r24, r23
     fc8:	10 0d       	add	r17, r0
     fca:	96 9f       	mul	r25, r22
     fcc:	10 0d       	add	r17, r0
     fce:	11 24       	eor	r1, r1
     fd0:	c8 01       	movw	r24, r16
     fd2:	0e 94 f9 07 	call	0xff2	; 0xff2 <malloc>
     fd6:	ec 01       	movw	r28, r24
     fd8:	00 97       	sbiw	r24, 0x00	; 0
     fda:	29 f0       	breq	.+10     	; 0xfe6 <calloc+0x2c>
     fdc:	a8 01       	movw	r20, r16
     fde:	60 e0       	ldi	r22, 0x00	; 0
     fe0:	70 e0       	ldi	r23, 0x00	; 0
     fe2:	0e 94 20 09 	call	0x1240	; 0x1240 <memset>
     fe6:	ce 01       	movw	r24, r28
     fe8:	df 91       	pop	r29
     fea:	cf 91       	pop	r28
     fec:	1f 91       	pop	r17
     fee:	0f 91       	pop	r16
     ff0:	08 95       	ret

00000ff2 <malloc>:
     ff2:	cf 93       	push	r28
     ff4:	df 93       	push	r29
     ff6:	82 30       	cpi	r24, 0x02	; 2
     ff8:	91 05       	cpc	r25, r1
     ffa:	10 f4       	brcc	.+4      	; 0x1000 <malloc+0xe>
     ffc:	82 e0       	ldi	r24, 0x02	; 2
     ffe:	90 e0       	ldi	r25, 0x00	; 0
    1000:	e0 91 b2 04 	lds	r30, 0x04B2
    1004:	f0 91 b3 04 	lds	r31, 0x04B3
    1008:	20 e0       	ldi	r18, 0x00	; 0
    100a:	30 e0       	ldi	r19, 0x00	; 0
    100c:	a0 e0       	ldi	r26, 0x00	; 0
    100e:	b0 e0       	ldi	r27, 0x00	; 0
    1010:	30 97       	sbiw	r30, 0x00	; 0
    1012:	39 f1       	breq	.+78     	; 0x1062 <malloc+0x70>
    1014:	40 81       	ld	r20, Z
    1016:	51 81       	ldd	r21, Z+1	; 0x01
    1018:	48 17       	cp	r20, r24
    101a:	59 07       	cpc	r21, r25
    101c:	b8 f0       	brcs	.+46     	; 0x104c <malloc+0x5a>
    101e:	48 17       	cp	r20, r24
    1020:	59 07       	cpc	r21, r25
    1022:	71 f4       	brne	.+28     	; 0x1040 <malloc+0x4e>
    1024:	82 81       	ldd	r24, Z+2	; 0x02
    1026:	93 81       	ldd	r25, Z+3	; 0x03
    1028:	10 97       	sbiw	r26, 0x00	; 0
    102a:	29 f0       	breq	.+10     	; 0x1036 <malloc+0x44>
    102c:	13 96       	adiw	r26, 0x03	; 3
    102e:	9c 93       	st	X, r25
    1030:	8e 93       	st	-X, r24
    1032:	12 97       	sbiw	r26, 0x02	; 2
    1034:	2c c0       	rjmp	.+88     	; 0x108e <malloc+0x9c>
    1036:	90 93 b3 04 	sts	0x04B3, r25
    103a:	80 93 b2 04 	sts	0x04B2, r24
    103e:	27 c0       	rjmp	.+78     	; 0x108e <malloc+0x9c>
    1040:	21 15       	cp	r18, r1
    1042:	31 05       	cpc	r19, r1
    1044:	31 f0       	breq	.+12     	; 0x1052 <malloc+0x60>
    1046:	42 17       	cp	r20, r18
    1048:	53 07       	cpc	r21, r19
    104a:	18 f0       	brcs	.+6      	; 0x1052 <malloc+0x60>
    104c:	a9 01       	movw	r20, r18
    104e:	db 01       	movw	r26, r22
    1050:	01 c0       	rjmp	.+2      	; 0x1054 <malloc+0x62>
    1052:	ef 01       	movw	r28, r30
    1054:	9a 01       	movw	r18, r20
    1056:	bd 01       	movw	r22, r26
    1058:	df 01       	movw	r26, r30
    105a:	02 80       	ldd	r0, Z+2	; 0x02
    105c:	f3 81       	ldd	r31, Z+3	; 0x03
    105e:	e0 2d       	mov	r30, r0
    1060:	d7 cf       	rjmp	.-82     	; 0x1010 <malloc+0x1e>
    1062:	21 15       	cp	r18, r1
    1064:	31 05       	cpc	r19, r1
    1066:	f9 f0       	breq	.+62     	; 0x10a6 <malloc+0xb4>
    1068:	28 1b       	sub	r18, r24
    106a:	39 0b       	sbc	r19, r25
    106c:	24 30       	cpi	r18, 0x04	; 4
    106e:	31 05       	cpc	r19, r1
    1070:	80 f4       	brcc	.+32     	; 0x1092 <malloc+0xa0>
    1072:	8a 81       	ldd	r24, Y+2	; 0x02
    1074:	9b 81       	ldd	r25, Y+3	; 0x03
    1076:	61 15       	cp	r22, r1
    1078:	71 05       	cpc	r23, r1
    107a:	21 f0       	breq	.+8      	; 0x1084 <malloc+0x92>
    107c:	fb 01       	movw	r30, r22
    107e:	93 83       	std	Z+3, r25	; 0x03
    1080:	82 83       	std	Z+2, r24	; 0x02
    1082:	04 c0       	rjmp	.+8      	; 0x108c <malloc+0x9a>
    1084:	90 93 b3 04 	sts	0x04B3, r25
    1088:	80 93 b2 04 	sts	0x04B2, r24
    108c:	fe 01       	movw	r30, r28
    108e:	32 96       	adiw	r30, 0x02	; 2
    1090:	44 c0       	rjmp	.+136    	; 0x111a <malloc+0x128>
    1092:	fe 01       	movw	r30, r28
    1094:	e2 0f       	add	r30, r18
    1096:	f3 1f       	adc	r31, r19
    1098:	81 93       	st	Z+, r24
    109a:	91 93       	st	Z+, r25
    109c:	22 50       	subi	r18, 0x02	; 2
    109e:	31 09       	sbc	r19, r1
    10a0:	39 83       	std	Y+1, r19	; 0x01
    10a2:	28 83       	st	Y, r18
    10a4:	3a c0       	rjmp	.+116    	; 0x111a <malloc+0x128>
    10a6:	20 91 b0 04 	lds	r18, 0x04B0
    10aa:	30 91 b1 04 	lds	r19, 0x04B1
    10ae:	23 2b       	or	r18, r19
    10b0:	41 f4       	brne	.+16     	; 0x10c2 <malloc+0xd0>
    10b2:	20 91 02 01 	lds	r18, 0x0102
    10b6:	30 91 03 01 	lds	r19, 0x0103
    10ba:	30 93 b1 04 	sts	0x04B1, r19
    10be:	20 93 b0 04 	sts	0x04B0, r18
    10c2:	20 91 00 01 	lds	r18, 0x0100
    10c6:	30 91 01 01 	lds	r19, 0x0101
    10ca:	21 15       	cp	r18, r1
    10cc:	31 05       	cpc	r19, r1
    10ce:	41 f4       	brne	.+16     	; 0x10e0 <malloc+0xee>
    10d0:	2d b7       	in	r18, 0x3d	; 61
    10d2:	3e b7       	in	r19, 0x3e	; 62
    10d4:	40 91 04 01 	lds	r20, 0x0104
    10d8:	50 91 05 01 	lds	r21, 0x0105
    10dc:	24 1b       	sub	r18, r20
    10de:	35 0b       	sbc	r19, r21
    10e0:	e0 91 b0 04 	lds	r30, 0x04B0
    10e4:	f0 91 b1 04 	lds	r31, 0x04B1
    10e8:	e2 17       	cp	r30, r18
    10ea:	f3 07       	cpc	r31, r19
    10ec:	a0 f4       	brcc	.+40     	; 0x1116 <malloc+0x124>
    10ee:	2e 1b       	sub	r18, r30
    10f0:	3f 0b       	sbc	r19, r31
    10f2:	28 17       	cp	r18, r24
    10f4:	39 07       	cpc	r19, r25
    10f6:	78 f0       	brcs	.+30     	; 0x1116 <malloc+0x124>
    10f8:	ac 01       	movw	r20, r24
    10fa:	4e 5f       	subi	r20, 0xFE	; 254
    10fc:	5f 4f       	sbci	r21, 0xFF	; 255
    10fe:	24 17       	cp	r18, r20
    1100:	35 07       	cpc	r19, r21
    1102:	48 f0       	brcs	.+18     	; 0x1116 <malloc+0x124>
    1104:	4e 0f       	add	r20, r30
    1106:	5f 1f       	adc	r21, r31
    1108:	50 93 b1 04 	sts	0x04B1, r21
    110c:	40 93 b0 04 	sts	0x04B0, r20
    1110:	81 93       	st	Z+, r24
    1112:	91 93       	st	Z+, r25
    1114:	02 c0       	rjmp	.+4      	; 0x111a <malloc+0x128>
    1116:	e0 e0       	ldi	r30, 0x00	; 0
    1118:	f0 e0       	ldi	r31, 0x00	; 0
    111a:	cf 01       	movw	r24, r30
    111c:	df 91       	pop	r29
    111e:	cf 91       	pop	r28
    1120:	08 95       	ret

00001122 <free>:
    1122:	cf 93       	push	r28
    1124:	df 93       	push	r29
    1126:	00 97       	sbiw	r24, 0x00	; 0
    1128:	09 f4       	brne	.+2      	; 0x112c <free+0xa>
    112a:	87 c0       	rjmp	.+270    	; 0x123a <free+0x118>
    112c:	fc 01       	movw	r30, r24
    112e:	32 97       	sbiw	r30, 0x02	; 2
    1130:	13 82       	std	Z+3, r1	; 0x03
    1132:	12 82       	std	Z+2, r1	; 0x02
    1134:	c0 91 b2 04 	lds	r28, 0x04B2
    1138:	d0 91 b3 04 	lds	r29, 0x04B3
    113c:	20 97       	sbiw	r28, 0x00	; 0
    113e:	81 f4       	brne	.+32     	; 0x1160 <free+0x3e>
    1140:	20 81       	ld	r18, Z
    1142:	31 81       	ldd	r19, Z+1	; 0x01
    1144:	28 0f       	add	r18, r24
    1146:	39 1f       	adc	r19, r25
    1148:	80 91 b0 04 	lds	r24, 0x04B0
    114c:	90 91 b1 04 	lds	r25, 0x04B1
    1150:	82 17       	cp	r24, r18
    1152:	93 07       	cpc	r25, r19
    1154:	79 f5       	brne	.+94     	; 0x11b4 <free+0x92>
    1156:	f0 93 b1 04 	sts	0x04B1, r31
    115a:	e0 93 b0 04 	sts	0x04B0, r30
    115e:	6d c0       	rjmp	.+218    	; 0x123a <free+0x118>
    1160:	de 01       	movw	r26, r28
    1162:	20 e0       	ldi	r18, 0x00	; 0
    1164:	30 e0       	ldi	r19, 0x00	; 0
    1166:	ae 17       	cp	r26, r30
    1168:	bf 07       	cpc	r27, r31
    116a:	50 f4       	brcc	.+20     	; 0x1180 <free+0x5e>
    116c:	12 96       	adiw	r26, 0x02	; 2
    116e:	4d 91       	ld	r20, X+
    1170:	5c 91       	ld	r21, X
    1172:	13 97       	sbiw	r26, 0x03	; 3
    1174:	9d 01       	movw	r18, r26
    1176:	41 15       	cp	r20, r1
    1178:	51 05       	cpc	r21, r1
    117a:	09 f1       	breq	.+66     	; 0x11be <free+0x9c>
    117c:	da 01       	movw	r26, r20
    117e:	f3 cf       	rjmp	.-26     	; 0x1166 <free+0x44>
    1180:	b3 83       	std	Z+3, r27	; 0x03
    1182:	a2 83       	std	Z+2, r26	; 0x02
    1184:	40 81       	ld	r20, Z
    1186:	51 81       	ldd	r21, Z+1	; 0x01
    1188:	84 0f       	add	r24, r20
    118a:	95 1f       	adc	r25, r21
    118c:	8a 17       	cp	r24, r26
    118e:	9b 07       	cpc	r25, r27
    1190:	71 f4       	brne	.+28     	; 0x11ae <free+0x8c>
    1192:	8d 91       	ld	r24, X+
    1194:	9c 91       	ld	r25, X
    1196:	11 97       	sbiw	r26, 0x01	; 1
    1198:	84 0f       	add	r24, r20
    119a:	95 1f       	adc	r25, r21
    119c:	02 96       	adiw	r24, 0x02	; 2
    119e:	91 83       	std	Z+1, r25	; 0x01
    11a0:	80 83       	st	Z, r24
    11a2:	12 96       	adiw	r26, 0x02	; 2
    11a4:	8d 91       	ld	r24, X+
    11a6:	9c 91       	ld	r25, X
    11a8:	13 97       	sbiw	r26, 0x03	; 3
    11aa:	93 83       	std	Z+3, r25	; 0x03
    11ac:	82 83       	std	Z+2, r24	; 0x02
    11ae:	21 15       	cp	r18, r1
    11b0:	31 05       	cpc	r19, r1
    11b2:	29 f4       	brne	.+10     	; 0x11be <free+0x9c>
    11b4:	f0 93 b3 04 	sts	0x04B3, r31
    11b8:	e0 93 b2 04 	sts	0x04B2, r30
    11bc:	3e c0       	rjmp	.+124    	; 0x123a <free+0x118>
    11be:	d9 01       	movw	r26, r18
    11c0:	13 96       	adiw	r26, 0x03	; 3
    11c2:	fc 93       	st	X, r31
    11c4:	ee 93       	st	-X, r30
    11c6:	12 97       	sbiw	r26, 0x02	; 2
    11c8:	4d 91       	ld	r20, X+
    11ca:	5d 91       	ld	r21, X+
    11cc:	a4 0f       	add	r26, r20
    11ce:	b5 1f       	adc	r27, r21
    11d0:	ea 17       	cp	r30, r26
    11d2:	fb 07       	cpc	r31, r27
    11d4:	79 f4       	brne	.+30     	; 0x11f4 <free+0xd2>
    11d6:	80 81       	ld	r24, Z
    11d8:	91 81       	ldd	r25, Z+1	; 0x01
    11da:	84 0f       	add	r24, r20
    11dc:	95 1f       	adc	r25, r21
    11de:	02 96       	adiw	r24, 0x02	; 2
    11e0:	d9 01       	movw	r26, r18
    11e2:	11 96       	adiw	r26, 0x01	; 1
    11e4:	9c 93       	st	X, r25
    11e6:	8e 93       	st	-X, r24
    11e8:	82 81       	ldd	r24, Z+2	; 0x02
    11ea:	93 81       	ldd	r25, Z+3	; 0x03
    11ec:	13 96       	adiw	r26, 0x03	; 3
    11ee:	9c 93       	st	X, r25
    11f0:	8e 93       	st	-X, r24
    11f2:	12 97       	sbiw	r26, 0x02	; 2
    11f4:	e0 e0       	ldi	r30, 0x00	; 0
    11f6:	f0 e0       	ldi	r31, 0x00	; 0
    11f8:	8a 81       	ldd	r24, Y+2	; 0x02
    11fa:	9b 81       	ldd	r25, Y+3	; 0x03
    11fc:	00 97       	sbiw	r24, 0x00	; 0
    11fe:	19 f0       	breq	.+6      	; 0x1206 <free+0xe4>
    1200:	fe 01       	movw	r30, r28
    1202:	ec 01       	movw	r28, r24
    1204:	f9 cf       	rjmp	.-14     	; 0x11f8 <free+0xd6>
    1206:	ce 01       	movw	r24, r28
    1208:	02 96       	adiw	r24, 0x02	; 2
    120a:	28 81       	ld	r18, Y
    120c:	39 81       	ldd	r19, Y+1	; 0x01
    120e:	82 0f       	add	r24, r18
    1210:	93 1f       	adc	r25, r19
    1212:	20 91 b0 04 	lds	r18, 0x04B0
    1216:	30 91 b1 04 	lds	r19, 0x04B1
    121a:	28 17       	cp	r18, r24
    121c:	39 07       	cpc	r19, r25
    121e:	69 f4       	brne	.+26     	; 0x123a <free+0x118>
    1220:	30 97       	sbiw	r30, 0x00	; 0
    1222:	29 f4       	brne	.+10     	; 0x122e <free+0x10c>
    1224:	10 92 b3 04 	sts	0x04B3, r1
    1228:	10 92 b2 04 	sts	0x04B2, r1
    122c:	02 c0       	rjmp	.+4      	; 0x1232 <free+0x110>
    122e:	13 82       	std	Z+3, r1	; 0x03
    1230:	12 82       	std	Z+2, r1	; 0x02
    1232:	d0 93 b1 04 	sts	0x04B1, r29
    1236:	c0 93 b0 04 	sts	0x04B0, r28
    123a:	df 91       	pop	r29
    123c:	cf 91       	pop	r28
    123e:	08 95       	ret

00001240 <memset>:
    1240:	dc 01       	movw	r26, r24
    1242:	01 c0       	rjmp	.+2      	; 0x1246 <memset+0x6>
    1244:	6d 93       	st	X+, r22
    1246:	41 50       	subi	r20, 0x01	; 1
    1248:	50 40       	sbci	r21, 0x00	; 0
    124a:	e0 f7       	brcc	.-8      	; 0x1244 <memset+0x4>
    124c:	08 95       	ret

0000124e <_exit>:
    124e:	f8 94       	cli

00001250 <__stop_program>:
    1250:	ff cf       	rjmp	.-2      	; 0x1250 <__stop_program>
